
usb_kb.elf:     file format elf32-littlenios2
usb_kb.elf
architecture: nios2, flags 0x00000112:
EXEC_P, HAS_SYMS, D_PAGED
start address 0x080001b8

Program Header:
    LOAD off    0x00001000 vaddr 0x08000000 paddr 0x08000000 align 2**12
         filesz 0x00000020 memsz 0x00000020 flags r-x
    LOAD off    0x00001020 vaddr 0x08000020 paddr 0x08000020 align 2**12
         filesz 0x0000e9e4 memsz 0x0000e9e4 flags r-x
    LOAD off    0x0000fa04 vaddr 0x0800ea04 paddr 0x0801045c align 2**12
         filesz 0x00001a58 memsz 0x00001a58 flags rw-
    LOAD off    0x00011eb4 vaddr 0x08011eb4 paddr 0x08011eb4 align 2**12
         filesz 0x00000000 memsz 0x000002f0 flags rw-

Sections:
Idx Name          Size      VMA       LMA       File off  Algn
  0 .entry        00000020  08000000  08000000  00001000  2**5
                  CONTENTS, ALLOC, LOAD, READONLY, CODE
  1 .exceptions   00000198  08000020  08000020  00001020  2**2
                  CONTENTS, ALLOC, LOAD, READONLY, CODE
  2 .text         0000ddc4  080001b8  080001b8  000011b8  2**2
                  CONTENTS, ALLOC, LOAD, READONLY, CODE
  3 .rodata       00000a88  0800df7c  0800df7c  0000ef7c  2**2
                  CONTENTS, ALLOC, LOAD, READONLY, DATA
  4 .rwdata       00001a58  0800ea04  0801045c  0000fa04  2**2
                  CONTENTS, ALLOC, LOAD, DATA, SMALL_DATA
  5 .bss          000002f0  08011eb4  08011eb4  00011eb4  2**2
                  ALLOC, SMALL_DATA
  6 .comment      00000023  00000000  00000000  0001145c  2**0
                  CONTENTS, READONLY
  7 .debug_aranges 00000d80  00000000  00000000  00011480  2**3
                  CONTENTS, READONLY, DEBUGGING
  8 .debug_info   00022939  00000000  00000000  00012200  2**0
                  CONTENTS, READONLY, DEBUGGING
  9 .debug_abbrev 00008ea3  00000000  00000000  00034b39  2**0
                  CONTENTS, READONLY, DEBUGGING
 10 .debug_line   0000a45b  00000000  00000000  0003d9dc  2**0
                  CONTENTS, READONLY, DEBUGGING
 11 .debug_frame  000019a0  00000000  00000000  00047e38  2**2
                  CONTENTS, READONLY, DEBUGGING
 12 .debug_str    00002e15  00000000  00000000  000497d8  2**0
                  CONTENTS, READONLY, DEBUGGING
 13 .debug_loc    00010ec0  00000000  00000000  0004c5ed  2**0
                  CONTENTS, READONLY, DEBUGGING
 14 .debug_alt_sim_info 00000040  00000000  00000000  0005d4b0  2**2
                  CONTENTS, READONLY, DEBUGGING
 15 .debug_ranges 00000a98  00000000  00000000  0005d4f0  2**3
                  CONTENTS, READONLY, DEBUGGING
 16 .thread_model 00000003  00000000  00000000  00060fa4  2**0
                  CONTENTS, READONLY
 17 .cpu          00000003  00000000  00000000  00060fa7  2**0
                  CONTENTS, READONLY
 18 .qsys         00000001  00000000  00000000  00060faa  2**0
                  CONTENTS, READONLY
 19 .simulation_enabled 00000001  00000000  00000000  00060fab  2**0
                  CONTENTS, READONLY
 20 .stderr_dev   00000009  00000000  00000000  00060fac  2**0
                  CONTENTS, READONLY
 21 .stdin_dev    00000009  00000000  00000000  00060fb5  2**0
                  CONTENTS, READONLY
 22 .stdout_dev   00000009  00000000  00000000  00060fbe  2**0
                  CONTENTS, READONLY
 23 .sopc_system_name 0000000a  00000000  00000000  00060fc7  2**0
                  CONTENTS, READONLY
 24 .quartus_project_dir 0000001d  00000000  00000000  00060fd1  2**0
                  CONTENTS, READONLY
 25 .sopcinfo     0004fd93  00000000  00000000  00060fee  2**0
                  CONTENTS, READONLY
SYMBOL TABLE:
08000000 l    d  .entry	00000000 .entry
08000020 l    d  .exceptions	00000000 .exceptions
080001b8 l    d  .text	00000000 .text
0800df7c l    d  .rodata	00000000 .rodata
0800ea04 l    d  .rwdata	00000000 .rwdata
08011eb4 l    d  .bss	00000000 .bss
00000000 l    d  .comment	00000000 .comment
00000000 l    d  .debug_aranges	00000000 .debug_aranges
00000000 l    d  .debug_info	00000000 .debug_info
00000000 l    d  .debug_abbrev	00000000 .debug_abbrev
00000000 l    d  .debug_line	00000000 .debug_line
00000000 l    d  .debug_frame	00000000 .debug_frame
00000000 l    d  .debug_str	00000000 .debug_str
00000000 l    d  .debug_loc	00000000 .debug_loc
00000000 l    d  .debug_alt_sim_info	00000000 .debug_alt_sim_info
00000000 l    d  .debug_ranges	00000000 .debug_ranges
00000000 l    df *ABS*	00000000 ../usb_kb_bsp//obj/HAL/src/crt0.o
080001f0 l       .text	00000000 alt_after_alt_main
00000000 l    df *ABS*	00000000 alt_exception_entry.o
08000094 l       .exceptions	00000000 alt_exception_unknown
00000000 l    df *ABS*	00000000 alt_irq_handler.c
00000000 l    df *ABS*	00000000 main.c
08011eb4 l     O .bss	00000002 ctl_reg.3183
08011eb6 l     O .bss	00000002 no_device.3184
00000000 l    df *ABS*	00000000 usb.c
00000000 l    df *ABS*	00000000 printf.c
00000000 l    df *ABS*	00000000 puts.c
00000000 l    df *ABS*	00000000 strlen.c
00000000 l    df *ABS*	00000000 vfprintf.c
080021f0 l     F .text	00000034 __sprint_r
0800e72a l     O .rodata	00000010 blanks.3546
0800e73a l     O .rodata	00000010 zeroes.3547
00000000 l    df *ABS*	00000000 wsetup.c
00000000 l    df *ABS*	00000000 dtoa.c
08004238 l     F .text	0000023c quorem
00000000 l    df *ABS*	00000000 fflush.c
00000000 l    df *ABS*	00000000 findfp.c
08005ca8 l     F .text	00000008 __fp_lock
08005cb0 l     F .text	00000008 __fp_unlock
00000000 l    df *ABS*	00000000 mallocr.c
00000000 l    df *ABS*	00000000 fvwrite.c
00000000 l    df *ABS*	00000000 fwalk.c
00000000 l    df *ABS*	00000000 impure.c
0800ea04 l     O .rwdata	00000400 impure_data
00000000 l    df *ABS*	00000000 locale.c
0800e770 l     O .rodata	00000030 lconv
00000000 l    df *ABS*	00000000 makebuf.c
00000000 l    df *ABS*	00000000 mallocr.c
00000000 l    df *ABS*	00000000 memchr.c
00000000 l    df *ABS*	00000000 memcpy.c
00000000 l    df *ABS*	00000000 memmove.c
00000000 l    df *ABS*	00000000 memset.c
00000000 l    df *ABS*	00000000 mprec.c
0800e8b8 l     O .rodata	0000000c p05.2466
00000000 l    df *ABS*	00000000 mallocr.c
00000000 l    df *ABS*	00000000 s_isinfd.c
00000000 l    df *ABS*	00000000 s_isnand.c
00000000 l    df *ABS*	00000000 sbrkr.c
00000000 l    df *ABS*	00000000 stdio.c
00000000 l    df *ABS*	00000000 strcmp.c
00000000 l    df *ABS*	00000000 writer.c
00000000 l    df *ABS*	00000000 mallocr.c
00000000 l    df *ABS*	00000000 closer.c
00000000 l    df *ABS*	00000000 fclose.c
00000000 l    df *ABS*	00000000 fstatr.c
00000000 l    df *ABS*	00000000 int_errno.c
00000000 l    df *ABS*	00000000 isattyr.c
00000000 l    df *ABS*	00000000 lseekr.c
00000000 l    df *ABS*	00000000 readr.c
00000000 l    df *ABS*	00000000 libgcc2.c
00000000 l    df *ABS*	00000000 libgcc2.c
00000000 l    df *ABS*	00000000 fp-bit.c
0800a28c l     F .text	00000354 _fpadd_parts
00000000 l    df *ABS*	00000000 fp-bit.c
00000000 l    df *ABS*	00000000 fp-bit.c
00000000 l    df *ABS*	00000000 fp-bit.c
00000000 l    df *ABS*	00000000 fp-bit.c
00000000 l    df *ABS*	00000000 fp-bit.c
00000000 l    df *ABS*	00000000 fp-bit.c
00000000 l    df *ABS*	00000000 fp-bit.c
00000000 l    df *ABS*	00000000 fp-bit.c
00000000 l    df *ABS*	00000000 fp-bit.c
00000000 l    df *ABS*	00000000 fp-bit.c
00000000 l    df *ABS*	00000000 fp-bit.c
00000000 l    df *ABS*	00000000 lib2-divmod.c
0800afbc l     F .text	00000074 udivmodsi4
00000000 l    df *ABS*	00000000 lib2-mul.c
00000000 l    df *ABS*	00000000 libgcc2.c
00000000 l    df *ABS*	00000000 libgcc2.c
00000000 l    df *ABS*	00000000 libgcc2.c
00000000 l    df *ABS*	00000000 fp-bit.c
00000000 l    df *ABS*	00000000 fp-bit.c
00000000 l    df *ABS*	00000000 fp-bit.c
00000000 l    df *ABS*	00000000 libgcc2.c
00000000 l    df *ABS*	00000000 libgcc2.c
00000000 l    df *ABS*	00000000 alt_close.c
0800b750 l     F .text	00000050 alt_get_errno
00000000 l    df *ABS*	00000000 alt_dev.c
0800b86c l     F .text	0000002c alt_dev_null_write
00000000 l    df *ABS*	00000000 alt_errno.c
00000000 l    df *ABS*	00000000 alt_fstat.c
0800b898 l     F .text	00000050 alt_get_errno
00000000 l    df *ABS*	00000000 alt_isatty.c
0800b998 l     F .text	00000050 alt_get_errno
00000000 l    df *ABS*	00000000 alt_load.c
0800ba8c l     F .text	0000006c alt_load_section
00000000 l    df *ABS*	00000000 alt_lseek.c
0800bb78 l     F .text	00000050 alt_get_errno
00000000 l    df *ABS*	00000000 alt_main.c
00000000 l    df *ABS*	00000000 alt_malloc_lock.c
00000000 l    df *ABS*	00000000 alt_read.c
0800bd54 l     F .text	00000050 alt_get_errno
00000000 l    df *ABS*	00000000 alt_release_fd.c
00000000 l    df *ABS*	00000000 alt_sbrk.c
0801044c l     O .rwdata	00000004 heap_end
00000000 l    df *ABS*	00000000 alt_usleep.c
00000000 l    df *ABS*	00000000 alt_write.c
0800bff8 l     F .text	00000050 alt_get_errno
00000000 l    df *ABS*	00000000 alt_sys_init.c
0800c138 l     F .text	00000038 alt_dev_reg
0800f3c0 l     O .rwdata	00001060 jtag_uart
00000000 l    df *ABS*	00000000 altera_avalon_jtag_uart_fd.c
00000000 l    df *ABS*	00000000 altera_avalon_jtag_uart_init.c
0800c40c l     F .text	00000204 altera_avalon_jtag_uart_irq
0800c610 l     F .text	000000a4 altera_avalon_jtag_uart_timeout
00000000 l    df *ABS*	00000000 altera_avalon_jtag_uart_ioctl.c
00000000 l    df *ABS*	00000000 altera_avalon_jtag_uart_read.c
00000000 l    df *ABS*	00000000 altera_avalon_jtag_uart_write.c
00000000 l    df *ABS*	00000000 alt_alarm_start.c
00000000 l    df *ABS*	00000000 alt_busy_sleep.c
00000000 l    df *ABS*	00000000 alt_dcache_flush_all.c
00000000 l    df *ABS*	00000000 alt_dev_llist_insert.c
0800cef8 l     F .text	00000050 alt_get_errno
00000000 l    df *ABS*	00000000 alt_do_ctors.c
00000000 l    df *ABS*	00000000 alt_do_dtors.c
00000000 l    df *ABS*	00000000 alt_icache_flush_all.c
00000000 l    df *ABS*	00000000 alt_iic.c
00000000 l    df *ABS*	00000000 alt_iic_isr_register.c
00000000 l    df *ABS*	00000000 alt_io_redirect.c
0800d384 l     F .text	000000e0 alt_open_fd
00000000 l    df *ABS*	00000000 alt_irq_vars.c
00000000 l    df *ABS*	00000000 alt_open.c
0800d4dc l     F .text	00000050 alt_get_errno
0800d52c l     F .text	000000f0 alt_file_locked
00000000 l    df *ABS*	00000000 alt_tick.c
00000000 l    df *ABS*	00000000 altera_nios2_qsys_irq.c
00000000 l    df *ABS*	00000000 alt_find_dev.c
00000000 l    df *ABS*	00000000 alt_find_file.c
00000000 l    df *ABS*	00000000 alt_get_fd.c
00000000 l    df *ABS*	00000000 atexit.c
00000000 l    df *ABS*	00000000 exit.c
00000000 l    df *ABS*	00000000 memcmp.c
00000000 l    df *ABS*	00000000 __atexit.c
00000000 l    df *ABS*	00000000 __call_atexit.c
00000000 l    df *ABS*	00000000 alt_exit.c
00000000 l    df *ABS*	00000000 
08008768 g     F .text	00000074 _mprec_log10
08008858 g     F .text	00000084 __any_on
080094d8 g     F .text	00000064 _isatty_r
0800e7a0 g     O .rodata	00000028 __mprec_tinytens
0800bc9c g     F .text	00000078 alt_main
0800b70c g     F .text	00000044 __ashldi3
080020cc g     F .text	00000084 _puts_r
08011f14 g     O .bss	00000100 alt_irq
0800953c g     F .text	0000006c _lseek_r
0801045c g       *ABS*	00000000 __flash_rwdata_start
0800ab2c g     F .text	0000005c __eqdf2
080121a4 g       *ABS*	00000000 __alt_heap_start
08002090 g     F .text	0000003c printf
0800907c g     F .text	0000005c __sseek
08005d4c g     F .text	0000010c __sinit
080069e4 g     F .text	0000009c _setlocale_r
08005cc4 g     F .text	00000078 __sfmoreglue
0800bd34 g     F .text	00000020 __malloc_unlock
08001f60 g     F .text	00000088 UsbGetRetryCnt
08007624 g     F .text	0000018c memmove
08005d3c g     F .text	00000010 _cleanup
0800788c g     F .text	000000a8 _Balloc
0800abe4 g     F .text	00000064 __gtdf2
00000000  w      *UND*	00000000 __errno
08000000 g     F .entry	0000000c __reset
08000020 g       *ABS*	00000000 __flash_exceptions_start
08009470 g     F .text	00000068 _fstat_r
08011ed0 g     O .bss	00000004 errno
08011ed8 g     O .bss	00000004 alt_argv
08018420 g       *ABS*	00000000 _gp
0800bfc8 g     F .text	00000030 usleep
0800f240 g     O .rwdata	00000180 alt_fd_list
0800d930 g     F .text	00000090 alt_find_dev
080074e4 g     F .text	00000140 memcpy
08005cb8 g     F .text	0000000c _cleanup_r
0800ad08 g     F .text	000000d4 __floatsidf
0800d464 g     F .text	00000078 alt_io_redirect
0800acac g     F .text	0000005c __ltdf2
0800df7c g       *ABS*	00000000 __DTOR_END__
08002150 g     F .text	00000014 puts
080086c4 g     F .text	000000a4 __ratio
0800c810 g     F .text	00000218 altera_avalon_jtag_uart_read
00000000  w      *UND*	00000000 malloc
08002064 g     F .text	0000002c _printf_r
0800b0dc g     F .text	00000008 __udivsi3
0800b9e8 g     F .text	000000a4 isatty
0800e7f0 g     O .rodata	000000c8 __mprec_tens
08006a80 g     F .text	0000000c __locale_charset
08011ecc g     O .bss	00000004 __malloc_top_pad
080015ec g     F .text	00000268 UsbGetConfigDesc2
08010428 g     O .rwdata	00000004 __mb_cur_max
08006a8c g     F .text	0000000c _localeconv_r
08007cbc g     F .text	0000003c __i2b
080063a0 g     F .text	000004e4 __sfvwrite_r
08008f3c g     F .text	00000064 _sbrk_r
080095a8 g     F .text	0000006c _read_r
0800ee04 g     O .rwdata	0000000c __lc_ctype
08010444 g     O .rwdata	00000004 alt_max_fd
0800b4f4 g     F .text	00000104 __unpack_d
08009320 g     F .text	0000013c _fclose_r
08005c78 g     F .text	00000030 fflush
08011ec8 g     O .bss	00000004 __malloc_max_sbrked_mem
0800a5e0 g     F .text	00000054 __adddf3
08008438 g     F .text	00000148 __b2d
08009c64 g     F .text	00000628 __umoddi3
0800bbc8 g     F .text	000000d4 lseek
08010420 g     O .rwdata	00000004 _global_impure_ptr
080088dc g     F .text	000005fc _realloc_r
080121a4 g       *ABS*	00000000 __bss_end
0800d294 g     F .text	000000f0 alt_iic_isr_register
0800d80c g     F .text	00000104 alt_tick
08009614 g     F .text	00000650 __udivdi3
0800e7c8 g     O .rodata	00000028 __mprec_bigtens
08007aa0 g     F .text	00000104 __s2b
0800aea0 g     F .text	0000011c __floatunsidf
080081d8 g     F .text	00000058 __mcmp
0800103c g     F .text	00000100 UsbSetAddress
08005f64 g     F .text	00000018 __fp_lock_all
0800d248 g     F .text	0000004c alt_ic_irq_enabled
0800d774 g     F .text	00000098 alt_alarm_stop
08011ee0 g     O .bss	00000004 alt_irq_active
080000ec g     F .exceptions	000000cc alt_irq_handler
0800f218 g     O .rwdata	00000028 alt_dev_null
0800cedc g     F .text	0000001c alt_dcache_flush_all
08007ba4 g     F .text	00000068 __hi0bits
0800addc g     F .text	000000c4 __fixdfsi
0801045c g       *ABS*	00000000 __ram_rwdata_end
0801043c g     O .rwdata	00000008 alt_dev_list
0800c048 g     F .text	000000f0 write
0800ea04 g       *ABS*	00000000 __ram_rodata_end
0800b8e8 g     F .text	000000b0 fstat
0800b6c8 g     F .text	00000044 __lshrdi3
08001fe8 g     F .text	0000007c UsbPrintMem
08007f50 g     F .text	0000012c __pow5mult
08011ec0 g     O .bss	00000004 __nlocale_changed
0800b0e4 g     F .text	00000008 __umodsi3
080121a4 g       *ABS*	00000000 end
0800c34c g     F .text	000000c0 altera_avalon_jtag_uart_init
0800df7c g       *ABS*	00000000 __CTOR_LIST__
10000000 g       *ABS*	00000000 __alt_stack_pointer
0800b224 g     F .text	000000ac __clzsi2
0800ca28 g     F .text	00000220 altera_avalon_jtag_uart_write
08005f54 g     F .text	00000004 __sfp_lock_acquire
080073ec g     F .text	000000f8 memchr
08002224 g     F .text	00001e7c ___vfprintf_internal_r
08001954 g     F .text	00000100 UsbClassRequest
080060d0 g     F .text	000002d0 _free_r
0800dda0 g     F .text	000001a0 __call_exitprocs
08011ebc g     O .bss	00000004 __mlocale_changed
0801042c g     O .rwdata	00000004 __malloc_sbrk_base
080001b8 g     F .text	0000003c _start
08011ee4 g     O .bss	00000004 _alt_tick_rate
0800807c g     F .text	0000015c __lshift
08011ee8 g     O .bss	00000004 _alt_nticks
0800bda4 g     F .text	000000f4 read
0800c1a4 g     F .text	00000044 alt_sys_init
0800dc70 g     F .text	00000130 __register_exitproc
08007cf8 g     F .text	00000258 __multiply
0800c6b4 g     F .text	00000068 altera_avalon_jtag_uart_close
0800b0ec g     F .text	00000028 __mulsi3
0800ea04 g       *ABS*	00000000 __ram_rwdata_start
0800df7c g       *ABS*	00000000 __ram_rodata_start
08011eec g     O .bss	00000028 __malloc_current_mallinfo
08008580 g     F .text	00000144 __d2b
0800113c g     F .text	00000148 UsbGetDeviceDesc1
0800c1e8 g     F .text	00000060 altera_avalon_jtag_uart_read_fd
0800dad4 g     F .text	000000d4 alt_get_fd
0800cd88 g     F .text	00000154 alt_busy_sleep
0800b5f8 g     F .text	000000d0 __fpcmp_parts_d
080092bc g     F .text	00000064 _close_r
0800dbf4 g     F .text	0000007c memcmp
0800c2a8 g     F .text	00000050 altera_avalon_jtag_uart_close_fd
080121a4 g       *ABS*	00000000 __alt_stack_base
0800c2f8 g     F .text	00000054 altera_avalon_jtag_uart_ioctl_fd
080040c4 g     F .text	00000174 __swsetup_r
0800a978 g     F .text	000001b4 __divdf3
08005e58 g     F .text	000000fc __sfp
080087dc g     F .text	0000007c __copybits
0800ee10 g     O .rwdata	00000408 __malloc_av_
08005f60 g     F .text	00000004 __sinit_lock_release
0800a694 g     F .text	000002e4 __muldf3
08008fa0 g     F .text	00000054 __sread
08001edc g     F .text	00000084 UsbWaitTDListDone
0800d9c0 g     F .text	00000114 alt_find_file
0800cf48 g     F .text	000000a0 alt_dev_llist_insert
0800bd14 g     F .text	00000020 __malloc_lock
0800bf18 g     F .text	000000b0 sbrk
08005a90 g     F .text	000001e8 _fflush_r
080091f0 g     F .text	000000cc _calloc_r
08011eb4 g       *ABS*	00000000 __bss_start
080077b0 g     F .text	000000dc memset
080001f4 g     F .text	00000d08 main
08011edc g     O .bss	00000004 alt_envp
08011ec4 g     O .bss	00000004 __malloc_max_total_mem
0800c248 g     F .text	00000060 altera_avalon_jtag_uart_write_fd
08001854 g     F .text	00000100 UsbSetConfig
080090d8 g     F .text	00000008 __sclose
10000000 g       *ABS*	00000000 __alt_heap_limit
0800945c g     F .text	00000014 fclose
08012014 g     O .bss	00000190 _atexit0
08004474 g     F .text	0000161c _dtoa_r
08006c68 g     F .text	00000784 _malloc_r
08010448 g     O .rwdata	00000004 alt_errno
08006884 g     F .text	000000a8 _fwalk
0800b030 g     F .text	00000050 __divsi3
0800e8c4 g     O .rodata	00000014 __thenan_df
08005f94 g     F .text	0000013c _malloc_trim_r
08001a54 g     F .text	00000148 UsbGetHidDesc
0800df7c g       *ABS*	00000000 __CTOR_END__
080090e0 g     F .text	000000a4 strcmp
0800df7c g       *ABS*	00000000 __flash_rodata_start
0800df7c g       *ABS*	00000000 __DTOR_LIST__
0800ab88 g     F .text	0000005c __nedf2
08000f44 g     F .text	0000003c UsbRead
0800c170 g     F .text	00000034 alt_irq_init
0800be98 g     F .text	00000080 alt_release_fd
0800e8d8 g     O .rodata	00000100 __clz_tab
08011eb8 g     O .bss	00000004 _PathLocale
0800dba8 g     F .text	00000014 atexit
08009184 g     F .text	0000006c _write_r
08006a98 g     F .text	0000001c setlocale
08010424 g     O .rwdata	00000004 _impure_ptr
08011ed4 g     O .bss	00000004 alt_argc
0800d044 g     F .text	0000005c _do_dtors
08000020 g       .exceptions	00000000 alt_irq_entry
080083d8 g     F .text	00000060 __ulp
08008ed8 g     F .text	00000038 __isinfd
08005f7c g     F .text	00000018 __fp_unlock_all
08010434 g     O .rwdata	00000008 alt_fs_list
08001b9c g     F .text	00000340 UsbGetReportDesc
08000020 g       *ABS*	00000000 __ram_exceptions_start
08006ab4 g     F .text	0000000c localeconv
0800d0bc g     F .text	00000050 alt_ic_isr_register
0801045c g       *ABS*	00000000 _edata
080121a4 g       *ABS*	00000000 _end
08000efc g     F .text	00000048 UsbWrite
080001b8 g       *ABS*	00000000 __ram_exceptions_end
0800c71c g     F .text	000000f4 altera_avalon_jtag_uart_ioctl
0800d1a8 g     F .text	000000a0 alt_ic_irq_disable
08008ff4 g     F .text	00000088 __swrite
08010430 g     O .rwdata	00000004 __malloc_trim_threshold
0800d910 g     F .text	00000020 altera_nios2_qsys_irq_init
0800dbbc g     F .text	00000038 exit
0800692c g     F .text	000000b8 _fwalk_reent
08008230 g     F .text	000001a8 __mdiff
0800b080 g     F .text	0000005c __modsi3
10000000 g       *ABS*	00000000 __alt_data_end
08000020 g     F .exceptions	00000000 alt_exception
08005f58 g     F .text	00000004 __sfp_lock_release
08000000 g       *ABS*	00000000 __alt_mem_sdram
0800df40 g     F .text	0000003c _exit
08008f10 g     F .text	0000002c __isnand
0800cc48 g     F .text	00000140 alt_alarm_start
0800b114 g     F .text	00000110 __muldi3
08006ac0 g     F .text	000001a8 __smakebuf_r
08002164 g     F .text	0000008c strlen
0800d61c g     F .text	00000158 open
0800ac48 g     F .text	00000064 __gedf2
0800d0a0 g     F .text	0000001c alt_icache_flush_all
08010450 g     O .rwdata	00000004 alt_priority_mask
0800d10c g     F .text	0000009c alt_ic_irq_enable
080040a0 g     F .text	00000024 __vfprintf_internal
0800a634 g     F .text	00000060 __subdf3
08007c0c g     F .text	000000b0 __lo0bits
0800145c g     F .text	00000190 UsbGetConfigDesc1
08010454 g     O .rwdata	00000008 alt_alarm_list
0800cfe8 g     F .text	0000005c _do_ctors
08000f80 g     F .text	000000bc UsbSoftReset
0800b7a0 g     F .text	000000cc close
08001284 g     F .text	000001d8 UsbGetDeviceDesc2
0800baf8 g     F .text	00000080 alt_load
0800b2d0 g     F .text	00000224 __pack_d
00000000  w      *UND*	00000000 free
08005f5c g     F .text	00000004 __sinit_lock_acquire
0800795c g     F .text	00000144 __multadd
08007934 g     F .text	00000028 _Bfree



Disassembly of section .entry:

08000000 <__reset>:
 * Jump to the _start entry point in the .text section if reset code
 * is allowed or if optimizing for RTL simulation.
 */
#if defined(ALT_ALLOW_CODE_AT_RESET) || defined(ALT_SIM_OPTIMIZE)
    /* Jump to the _start entry point in the .text section. */
    movhi r1, %hi(_start)
 8000000:	00420034 	movhi	at,2048
    ori r1, r1, %lo(_start)
 8000004:	08406e14 	ori	at,at,440
    jmp r1
 8000008:	0800683a 	jmp	at
	...

Disassembly of section .exceptions:

08000020 <alt_exception>:

#else /* ALT_EXCEPTION_STACK disabled */
        /* 
         * Reserve space on normal stack for registers about to be pushed.
         */
        addi  sp, sp, -76
 8000020:	deffed04 	addi	sp,sp,-76
         * documentation for details).
         *
         * Leave a gap in the stack frame at 4(sp) for the muldiv handler to
         * store zero into.
         */
        stw   ra,  0(sp)
 8000024:	dfc00015 	stw	ra,0(sp)
        stw   r1,   8(sp)
 8000028:	d8400215 	stw	at,8(sp)
        stw   r2,  12(sp)
 800002c:	d8800315 	stw	r2,12(sp)
        stw   r3,  16(sp)
 8000030:	d8c00415 	stw	r3,16(sp)
        stw   r4,  20(sp)
 8000034:	d9000515 	stw	r4,20(sp)
        stw   r5,  24(sp)
 8000038:	d9400615 	stw	r5,24(sp)
        stw   r6,  28(sp)
 800003c:	d9800715 	stw	r6,28(sp)
        stw   r7,  32(sp)
 8000040:	d9c00815 	stw	r7,32(sp)
        rdctl r5, estatus   /* Read early to avoid usage stall */
 8000044:	000b307a 	rdctl	r5,estatus
        stw   r8,  36(sp)
 8000048:	da000915 	stw	r8,36(sp)
        stw   r9,  40(sp)
 800004c:	da400a15 	stw	r9,40(sp)
        stw   r10, 44(sp)
 8000050:	da800b15 	stw	r10,44(sp)
        stw   r11, 48(sp)
 8000054:	dac00c15 	stw	r11,48(sp)
        stw   r12, 52(sp)
 8000058:	db000d15 	stw	r12,52(sp)
        stw   r13, 56(sp)
 800005c:	db400e15 	stw	r13,56(sp)
        stw   r14, 60(sp)
 8000060:	db800f15 	stw	r14,60(sp)
        stw   r15, 64(sp)
 8000064:	dbc01015 	stw	r15,64(sp)
        /*
         * ea-4 contains the address of the instruction being executed
         * when the exception occured. For interrupt exceptions, we will
         * will be re-issue the isntruction. Store it in 72(sp)
         */
        stw   r5,  68(sp)  /* estatus */
 8000068:	d9401115 	stw	r5,68(sp)
        addi  r15, ea, -4  /* instruction that caused exception */
 800006c:	ebffff04 	addi	r15,ea,-4
        stw   r15,  72(sp)
 8000070:	dbc01215 	stw	r15,72(sp)
#else
        /*
         * Test to see if the exception was a software exception or caused 
         * by an external interrupt, and vector accordingly.
         */
        rdctl r4, ipending
 8000074:	0009313a 	rdctl	r4,ipending
        andi  r2, r5, 1
 8000078:	2880004c 	andi	r2,r5,1
        beq   r2, zero, .Lnot_irq
 800007c:	10000326 	beq	r2,zero,800008c <alt_exception+0x6c>
        beq   r4, zero, .Lnot_irq
 8000080:	20000226 	beq	r4,zero,800008c <alt_exception+0x6c>
        /*
         * Now that all necessary registers have been preserved, call 
         * alt_irq_handler() to process the interrupts.
         */

        call alt_irq_handler
 8000084:	80000ec0 	call	80000ec <alt_irq_handler>

        .section .exceptions.irqreturn, "xa"

        br    .Lexception_exit
 8000088:	00000306 	br	8000098 <alt_exception_unknown+0x4>
         * upon completion, so we write ea (address of instruction *after*
         * the one where the exception occured) into 72(sp). The actual
         * instruction that caused the exception is written in r2, which these
         * handlers will utilize.
         */
        stw   ea,  72(sp)  /* Don't re-issue */
 800008c:	df401215 	stw	ea,72(sp)
        ldw   r2, -4(ea)   /* Instruction that caused exception */
 8000090:	e8bfff17 	ldw	r2,-4(ea)

08000094 <alt_exception_unknown>:
#ifdef NIOS2_HAS_DEBUG_STUB
       /*
        *  Either tell the user now (if there is a debugger attached) or go into
        *  the debug monitor which will loop until a debugger is attached.
        */
        break
 8000094:	003da03a 	break	0
        /* 
         * Restore the saved registers, so that all general purpose registers 
         * have been restored to their state at the time the interrupt occured.
         */

        ldw   r5,  68(sp)
 8000098:	d9401117 	ldw	r5,68(sp)
        ldw   ea,  72(sp)  /* This becomes the PC once eret is executed */
 800009c:	df401217 	ldw	ea,72(sp)
        ldw   ra,   0(sp)
 80000a0:	dfc00017 	ldw	ra,0(sp)

        wrctl estatus, r5
 80000a4:	2801707a 	wrctl	estatus,r5

        ldw   r1,   8(sp)
 80000a8:	d8400217 	ldw	at,8(sp)
        ldw   r2,  12(sp)
 80000ac:	d8800317 	ldw	r2,12(sp)
        ldw   r3,  16(sp)
 80000b0:	d8c00417 	ldw	r3,16(sp)
        ldw   r4,  20(sp)
 80000b4:	d9000517 	ldw	r4,20(sp)
        ldw   r5,  24(sp)
 80000b8:	d9400617 	ldw	r5,24(sp)
        ldw   r6,  28(sp)
 80000bc:	d9800717 	ldw	r6,28(sp)
        ldw   r7,  32(sp)
 80000c0:	d9c00817 	ldw	r7,32(sp)

#if defined(ALT_EXCEPTION_STACK) && defined(ALT_STACK_CHECK)
        ldw   et, %gprel(alt_exception_old_stack_limit)(gp)
#endif

        ldw   r8,  36(sp)
 80000c4:	da000917 	ldw	r8,36(sp)
        ldw   r9,  40(sp)
 80000c8:	da400a17 	ldw	r9,40(sp)
        ldw   r10, 44(sp)
 80000cc:	da800b17 	ldw	r10,44(sp)
        ldw   r11, 48(sp)
 80000d0:	dac00c17 	ldw	r11,48(sp)
        ldw   r12, 52(sp)
 80000d4:	db000d17 	ldw	r12,52(sp)
        ldw   r13, 56(sp)
 80000d8:	db400e17 	ldw	r13,56(sp)
        ldw   r14, 60(sp)
 80000dc:	db800f17 	ldw	r14,60(sp)
        ldw   r15, 64(sp)
 80000e0:	dbc01017 	ldw	r15,64(sp)
        stw   et, %gprel(alt_stack_limit_value)(gp)
        stw   zero, %gprel(alt_exception_old_stack_limit)(gp)
#endif /* ALT_STACK_CHECK */
        ldw   sp,  76(sp)
#else /* ALT_EXCEPTION_STACK disabled */
        addi  sp, sp, 76
 80000e4:	dec01304 	addi	sp,sp,76

        /*
         * Return to the interrupted instruction.
         */

        eret
 80000e8:	ef80083a 	eret

080000ec <alt_irq_handler>:
 * instruction is present if the macro ALT_CI_INTERRUPT_VECTOR defined.
 */

void alt_irq_handler (void) __attribute__ ((section (".exceptions")));
void alt_irq_handler (void)
{
 80000ec:	defff904 	addi	sp,sp,-28
 80000f0:	dfc00615 	stw	ra,24(sp)
 80000f4:	df000515 	stw	fp,20(sp)
 80000f8:	df000504 	addi	fp,sp,20
  
  /*
   * Notify the operating system that we are at interrupt level.
   */ 
  
  ALT_OS_INT_ENTER();
 80000fc:	0001883a 	nop
#ifndef NIOS2_EIC_PRESENT
static ALT_INLINE alt_u32 ALT_ALWAYS_INLINE alt_irq_pending (void)
{
  alt_u32 active;

  NIOS2_READ_IPENDING (active);
 8000100:	0005313a 	rdctl	r2,ipending
 8000104:	e0bffe15 	stw	r2,-8(fp)

  return active;
 8000108:	e0bffe17 	ldw	r2,-8(fp)
   * Consider the case where the high priority interupt is asserted during
   * the interrupt entry sequence for a lower priority interrupt to see why
   * this is the case.
   */

  active = alt_irq_pending ();
 800010c:	e0bffb15 	stw	r2,-20(fp)

  do
  {
    i = 0;
 8000110:	e03ffd15 	stw	zero,-12(fp)
    mask = 1;
 8000114:	00800044 	movi	r2,1
 8000118:	e0bffc15 	stw	r2,-16(fp)
     * called to clear the interrupt condition.
     */

    do
    {
      if (active & mask)
 800011c:	e0fffb17 	ldw	r3,-20(fp)
 8000120:	e0bffc17 	ldw	r2,-16(fp)
 8000124:	1884703a 	and	r2,r3,r2
 8000128:	10001726 	beq	r2,zero,8000188 <alt_irq_handler+0x9c>
      { 
#ifdef ALT_ENHANCED_INTERRUPT_API_PRESENT
        alt_irq[i].handler(alt_irq[i].context); 
 800012c:	00c20074 	movhi	r3,2049
 8000130:	18c7c504 	addi	r3,r3,7956
 8000134:	e0bffd17 	ldw	r2,-12(fp)
 8000138:	100490fa 	slli	r2,r2,3
 800013c:	1885883a 	add	r2,r3,r2
 8000140:	10c00017 	ldw	r3,0(r2)
 8000144:	01020074 	movhi	r4,2049
 8000148:	2107c504 	addi	r4,r4,7956
 800014c:	e0bffd17 	ldw	r2,-12(fp)
 8000150:	100490fa 	slli	r2,r2,3
 8000154:	2085883a 	add	r2,r4,r2
 8000158:	10800104 	addi	r2,r2,4
 800015c:	10800017 	ldw	r2,0(r2)
 8000160:	1009883a 	mov	r4,r2
 8000164:	183ee83a 	callr	r3
#else
        alt_irq[i].handler(alt_irq[i].context, i); 
#endif
        break;
 8000168:	0001883a 	nop
#ifndef NIOS2_EIC_PRESENT
static ALT_INLINE alt_u32 ALT_ALWAYS_INLINE alt_irq_pending (void)
{
  alt_u32 active;

  NIOS2_READ_IPENDING (active);
 800016c:	0005313a 	rdctl	r2,ipending
 8000170:	e0bfff15 	stw	r2,-4(fp)

  return active;
 8000174:	e0bfff17 	ldw	r2,-4(fp)
      mask <<= 1;
      i++;

    } while (1);

    active = alt_irq_pending ();
 8000178:	e0bffb15 	stw	r2,-20(fp)
    
  } while (active);
 800017c:	e0bffb17 	ldw	r2,-20(fp)
 8000180:	103fe31e 	bne	r2,zero,8000110 <__alt_data_end+0xf8000110>

  /*
   * Notify the operating system that interrupt processing is complete.
   */ 

  ALT_OS_INT_EXIT();
 8000184:	00000706 	br	80001a4 <alt_irq_handler+0xb8>
#else
        alt_irq[i].handler(alt_irq[i].context, i); 
#endif
        break;
      }
      mask <<= 1;
 8000188:	e0bffc17 	ldw	r2,-16(fp)
 800018c:	1085883a 	add	r2,r2,r2
 8000190:	e0bffc15 	stw	r2,-16(fp)
      i++;
 8000194:	e0bffd17 	ldw	r2,-12(fp)
 8000198:	10800044 	addi	r2,r2,1
 800019c:	e0bffd15 	stw	r2,-12(fp)

    } while (1);
 80001a0:	003fde06 	br	800011c <__alt_data_end+0xf800011c>
  /*
   * Notify the operating system that interrupt processing is complete.
   */ 

  ALT_OS_INT_EXIT();
}
 80001a4:	e037883a 	mov	sp,fp
 80001a8:	dfc00117 	ldw	ra,4(sp)
 80001ac:	df000017 	ldw	fp,0(sp)
 80001b0:	dec00204 	addi	sp,sp,8
 80001b4:	f800283a 	ret

Disassembly of section .text:

080001b8 <_start>:

    /*
     * Now that the caches are initialized, set up the stack pointer and global pointer.
     * The values provided by the linker are assumed to be correctly aligned.
     */
    movhi sp, %hi(__alt_stack_pointer)
 80001b8:	06c40034 	movhi	sp,4096
    ori sp, sp, %lo(__alt_stack_pointer)
 80001bc:	dec00014 	ori	sp,sp,0
    movhi gp, %hi(_gp)
 80001c0:	06820074 	movhi	gp,2049
    ori gp, gp, %lo(_gp)
 80001c4:	d6a10814 	ori	gp,gp,33824
 */
#ifndef ALT_SIM_OPTIMIZE
    /* Log that the BSS is about to be cleared. */
    ALT_LOG_PUTS(alt_log_msg_bss)

    movhi r2, %hi(__bss_start)
 80001c8:	00820074 	movhi	r2,2049
    ori r2, r2, %lo(__bss_start)
 80001cc:	1087ad14 	ori	r2,r2,7860

    movhi r3, %hi(__bss_end)
 80001d0:	00c20074 	movhi	r3,2049
    ori r3, r3, %lo(__bss_end)
 80001d4:	18c86914 	ori	r3,r3,8612

    beq r2, r3, 1f
 80001d8:	10c00326 	beq	r2,r3,80001e8 <_start+0x30>

0:
    stw zero, (r2)
 80001dc:	10000015 	stw	zero,0(r2)
    addi r2, r2, 4
 80001e0:	10800104 	addi	r2,r2,4
    bltu r2, r3, 0b
 80001e4:	10fffd36 	bltu	r2,r3,80001dc <__alt_data_end+0xf80001dc>
     * section aren't defined until alt_load() has been called).
     */
    mov   et, zero
#endif

    call alt_load
 80001e8:	800baf80 	call	800baf8 <alt_load>

    /* Log that alt_main is about to be called. */
    ALT_LOG_PUTS(alt_log_msg_alt_main)

    /* Call the C entry point. It should never return. */
    call alt_main
 80001ec:	800bc9c0 	call	800bc9c <alt_main>

080001f0 <alt_after_alt_main>:

    /* Wait in infinite loop in case alt_main does return. */
alt_after_alt_main:
    br alt_after_alt_main
 80001f0:	003fff06 	br	80001f0 <__alt_data_end+0xf80001f0>

080001f4 <main>:
//
//                                Main function
//
//----------------------------------------------------------------------------------------//
int main(void)
{
 80001f4:	defff904 	addi	sp,sp,-28
 80001f8:	dfc00615 	stw	ra,24(sp)
 80001fc:	df000515 	stw	fp,20(sp)
 8000200:	df000504 	addi	fp,sp,20
	alt_u16 intStat;
	alt_u16 usb_ctl_val;
	static alt_u16 ctl_reg = 0;
	static alt_u16 no_device = 0;
	alt_u16 fs_device = 0;
 8000204:	e03ffc0d 	sth	zero,-16(fp)
	int keycode = 0;
 8000208:	e03ffd15 	stw	zero,-12(fp)
	alt_u8 toggle = 0;
 800020c:	e03ffb85 	stb	zero,-18(fp)
	alt_u8 data_size;

	alt_u16 code;
	int i;

	printf("USB keyboard setup...\n\n");
 8000210:	01020074 	movhi	r4,2049
 8000214:	2137df04 	addi	r4,r4,-8324
 8000218:	80021500 	call	8002150 <puts>
 800021c:	00000306 	br	800022c <main+0x38>
		printf("[INFO]: please insert a USB keyboard in SIE1!\n");
		while (!(usb_ctl_val & no_device))
		{
			usb_ctl_val = UsbRead(ctl_reg);
			if(usb_ctl_val & no_device)
				goto USB_HOT_PLUG;
 8000220:	0001883a 	nop
 8000224:	00000106 	br	800022c <main+0x38>
			usleep(5*1000);
			usb_ctl_val = UsbRead(ctl_reg);
			usleep(5*1000);

			if(usb_ctl_val & no_device)
				goto USB_HOT_PLUG;
 8000228:	0001883a 	nop

	printf("USB keyboard setup...\n\n");

	//----------------------------------------SIE1 initial---------------------------------------------------//
	USB_HOT_PLUG:
	UsbSoftReset();
 800022c:	8000f800 	call	8000f80 <UsbSoftReset>

	// STEP 1a:
	UsbWrite (HPI_SIE1_MSG_ADR, 0);
 8000230:	01005104 	movi	r4,324
 8000234:	000b883a 	mov	r5,zero
 8000238:	8000efc0 	call	8000efc <UsbWrite>
	UsbWrite (HOST1_STAT_REG, 0xFFFF);
 800023c:	01302414 	movui	r4,49296
 8000240:	017fffd4 	movui	r5,65535
 8000244:	8000efc0 	call	8000efc <UsbWrite>

	/* Set HUSB_pEOT time */
	UsbWrite(HUSB_pEOT, 600); // adjust the according to your USB device speed
 8000248:	01006d04 	movi	r4,436
 800024c:	01409604 	movi	r5,600
 8000250:	8000efc0 	call	8000efc <UsbWrite>

	usb_ctl_val = SOFEOP1_TO_CPU_EN | RESUME1_TO_HPI_EN;// | SOFEOP1_TO_HPI_EN;
 8000254:	00811004 	movi	r2,1088
 8000258:	e0bffb0d 	sth	r2,-20(fp)
	UsbWrite(HPI_IRQ_ROUTING_REG, usb_ctl_val);
 800025c:	e0bffb0b 	ldhu	r2,-20(fp)
 8000260:	01005084 	movi	r4,322
 8000264:	100b883a 	mov	r5,r2
 8000268:	8000efc0 	call	8000efc <UsbWrite>

	intStat = A_CHG_IRQ_EN | SOF_EOP_IRQ_EN ;
 800026c:	00808404 	movi	r2,528
 8000270:	e0bffe0d 	sth	r2,-8(fp)
	UsbWrite(HOST1_IRQ_EN_REG, intStat);
 8000274:	e0bffe0b 	ldhu	r2,-8(fp)
 8000278:	01302314 	movui	r4,49292
 800027c:	100b883a 	mov	r5,r2
 8000280:	8000efc0 	call	8000efc <UsbWrite>
	// STEP 1a end

	// STEP 1b begin
	UsbWrite(COMM_R0,0x0000);//reset time
 8000284:	01007104 	movi	r4,452
 8000288:	000b883a 	mov	r5,zero
 800028c:	8000efc0 	call	8000efc <UsbWrite>
	UsbWrite(COMM_R1,0x0000);  //port number
 8000290:	01007184 	movi	r4,454
 8000294:	000b883a 	mov	r5,zero
 8000298:	8000efc0 	call	8000efc <UsbWrite>
	UsbWrite(COMM_R2,0x0000);  //r1
 800029c:	01007204 	movi	r4,456
 80002a0:	000b883a 	mov	r5,zero
 80002a4:	8000efc0 	call	8000efc <UsbWrite>
	UsbWrite(COMM_R3,0x0000);  //r1
 80002a8:	01007284 	movi	r4,458
 80002ac:	000b883a 	mov	r5,zero
 80002b0:	8000efc0 	call	8000efc <UsbWrite>
	UsbWrite(COMM_R4,0x0000);  //r1
 80002b4:	01007304 	movi	r4,460
 80002b8:	000b883a 	mov	r5,zero
 80002bc:	8000efc0 	call	8000efc <UsbWrite>
	UsbWrite(COMM_R5,0x0000);  //r1
 80002c0:	01007384 	movi	r4,462
 80002c4:	000b883a 	mov	r5,zero
 80002c8:	8000efc0 	call	8000efc <UsbWrite>
	UsbWrite(COMM_R6,0x0000);  //r1
 80002cc:	01007404 	movi	r4,464
 80002d0:	000b883a 	mov	r5,zero
 80002d4:	8000efc0 	call	8000efc <UsbWrite>
	UsbWrite(COMM_R7,0x0000);  //r1
 80002d8:	01007484 	movi	r4,466
 80002dc:	000b883a 	mov	r5,zero
 80002e0:	8000efc0 	call	8000efc <UsbWrite>
	UsbWrite(COMM_R8,0x0000);  //r1
 80002e4:	01007504 	movi	r4,468
 80002e8:	000b883a 	mov	r5,zero
 80002ec:	8000efc0 	call	8000efc <UsbWrite>
	UsbWrite(COMM_R9,0x0000);  //r1
 80002f0:	01007584 	movi	r4,470
 80002f4:	000b883a 	mov	r5,zero
 80002f8:	8000efc0 	call	8000efc <UsbWrite>
	UsbWrite(COMM_R10,0x0000);  //r1
 80002fc:	01007604 	movi	r4,472
 8000300:	000b883a 	mov	r5,zero
 8000304:	8000efc0 	call	8000efc <UsbWrite>
	UsbWrite(COMM_R11,0x0000);  //r1
 8000308:	01007684 	movi	r4,474
 800030c:	000b883a 	mov	r5,zero
 8000310:	8000efc0 	call	8000efc <UsbWrite>
	UsbWrite(COMM_R12,0x0000);  //r1
 8000314:	01007704 	movi	r4,476
 8000318:	000b883a 	mov	r5,zero
 800031c:	8000efc0 	call	8000efc <UsbWrite>
	UsbWrite(COMM_R13,0x0000);  //r1
 8000320:	01007784 	movi	r4,478
 8000324:	000b883a 	mov	r5,zero
 8000328:	8000efc0 	call	8000efc <UsbWrite>
	UsbWrite(COMM_INT_NUM,HUSB_SIE1_INIT_INT); //HUSB_SIE1_INIT_INT
 800032c:	01007084 	movi	r4,450
 8000330:	01401c84 	movi	r5,114
 8000334:	8000efc0 	call	8000efc <UsbWrite>
	IOWR(CY7C67200_BASE,HPI_MAILBOX,COMM_EXEC_INT);
 8000338:	00f38054 	movui	r3,52737
 800033c:	00840034 	movhi	r2,4096
 8000340:	10800104 	addi	r2,r2,4
 8000344:	10c00035 	stwio	r3,0(r2)

	while (!(IORD(CY7C67200_BASE,HPI_STATUS) & 0xFFFF) )  //read sie1 msg register
 8000348:	0001883a 	nop
 800034c:	00840034 	movhi	r2,4096
 8000350:	10800304 	addi	r2,r2,12
 8000354:	10800037 	ldwio	r2,0(r2)
 8000358:	10bfffcc 	andi	r2,r2,65535
 800035c:	103ffb26 	beq	r2,zero,800034c <__alt_data_end+0xf800034c>
	{
	}
	while (IORD(CY7C67200_BASE,HPI_MAILBOX) != COMM_ACK)
 8000360:	00000806 	br	8000384 <main+0x190>
	{
		printf("[ERROR]:routine mailbox data is %x\n",IORD(CY7C67200_BASE,HPI_MAILBOX));
 8000364:	00840034 	movhi	r2,4096
 8000368:	10800104 	addi	r2,r2,4
 800036c:	10800037 	ldwio	r2,0(r2)
 8000370:	01020074 	movhi	r4,2049
 8000374:	2137e504 	addi	r4,r4,-8300
 8000378:	100b883a 	mov	r5,r2
 800037c:	80020900 	call	8002090 <printf>
		goto USB_HOT_PLUG;
 8000380:	003faa06 	br	800022c <__alt_data_end+0xf800022c>
	IOWR(CY7C67200_BASE,HPI_MAILBOX,COMM_EXEC_INT);

	while (!(IORD(CY7C67200_BASE,HPI_STATUS) & 0xFFFF) )  //read sie1 msg register
	{
	}
	while (IORD(CY7C67200_BASE,HPI_MAILBOX) != COMM_ACK)
 8000384:	00840034 	movhi	r2,4096
 8000388:	10800104 	addi	r2,r2,4
 800038c:	10800037 	ldwio	r2,0(r2)
 8000390:	1083fb58 	cmpnei	r2,r2,4077
 8000394:	103ff31e 	bne	r2,zero,8000364 <__alt_data_end+0xf8000364>
	// STEP 1b end


	// STEP 2 begin
	//usleep(30*1000);
	UsbWrite(COMM_INT_NUM,HUSB_RESET_INT); //husb reset
 8000398:	01007084 	movi	r4,450
 800039c:	01401d04 	movi	r5,116
 80003a0:	8000efc0 	call	8000efc <UsbWrite>
	UsbWrite(COMM_R0,0x003c);//reset time
 80003a4:	01007104 	movi	r4,452
 80003a8:	01400f04 	movi	r5,60
 80003ac:	8000efc0 	call	8000efc <UsbWrite>
	UsbWrite(COMM_R1,0x0000);  //port number
 80003b0:	01007184 	movi	r4,454
 80003b4:	000b883a 	mov	r5,zero
 80003b8:	8000efc0 	call	8000efc <UsbWrite>
	UsbWrite(COMM_R2,0x0000);  //r1
 80003bc:	01007204 	movi	r4,456
 80003c0:	000b883a 	mov	r5,zero
 80003c4:	8000efc0 	call	8000efc <UsbWrite>
	UsbWrite(COMM_R3,0x0000);  //r1
 80003c8:	01007284 	movi	r4,458
 80003cc:	000b883a 	mov	r5,zero
 80003d0:	8000efc0 	call	8000efc <UsbWrite>
	UsbWrite(COMM_R4,0x0000);  //r1
 80003d4:	01007304 	movi	r4,460
 80003d8:	000b883a 	mov	r5,zero
 80003dc:	8000efc0 	call	8000efc <UsbWrite>
	UsbWrite(COMM_R5,0x0000);  //r1
 80003e0:	01007384 	movi	r4,462
 80003e4:	000b883a 	mov	r5,zero
 80003e8:	8000efc0 	call	8000efc <UsbWrite>
	UsbWrite(COMM_R6,0x0000);  //r1
 80003ec:	01007404 	movi	r4,464
 80003f0:	000b883a 	mov	r5,zero
 80003f4:	8000efc0 	call	8000efc <UsbWrite>
	UsbWrite(COMM_R7,0x0000);  //r1
 80003f8:	01007484 	movi	r4,466
 80003fc:	000b883a 	mov	r5,zero
 8000400:	8000efc0 	call	8000efc <UsbWrite>
	UsbWrite(COMM_R8,0x0000);  //r1
 8000404:	01007504 	movi	r4,468
 8000408:	000b883a 	mov	r5,zero
 800040c:	8000efc0 	call	8000efc <UsbWrite>
	UsbWrite(COMM_R9,0x0000);  //r1
 8000410:	01007584 	movi	r4,470
 8000414:	000b883a 	mov	r5,zero
 8000418:	8000efc0 	call	8000efc <UsbWrite>
	UsbWrite(COMM_R10,0x0000);  //r1
 800041c:	01007604 	movi	r4,472
 8000420:	000b883a 	mov	r5,zero
 8000424:	8000efc0 	call	8000efc <UsbWrite>
	UsbWrite(COMM_R11,0x0000);  //r1
 8000428:	01007684 	movi	r4,474
 800042c:	000b883a 	mov	r5,zero
 8000430:	8000efc0 	call	8000efc <UsbWrite>
	UsbWrite(COMM_R12,0x0000);  //r1
 8000434:	01007704 	movi	r4,476
 8000438:	000b883a 	mov	r5,zero
 800043c:	8000efc0 	call	8000efc <UsbWrite>
	UsbWrite(COMM_R13,0x0000);  //r1
 8000440:	01007784 	movi	r4,478
 8000444:	000b883a 	mov	r5,zero
 8000448:	8000efc0 	call	8000efc <UsbWrite>

	IOWR(CY7C67200_BASE,HPI_MAILBOX,COMM_EXEC_INT);
 800044c:	00f38054 	movui	r3,52737
 8000450:	00840034 	movhi	r2,4096
 8000454:	10800104 	addi	r2,r2,4
 8000458:	10c00035 	stwio	r3,0(r2)

	while (IORD(CY7C67200_BASE,HPI_MAILBOX) != COMM_ACK)
 800045c:	0001883a 	nop
 8000460:	00840034 	movhi	r2,4096
 8000464:	10800104 	addi	r2,r2,4
 8000468:	10800037 	ldwio	r2,0(r2)
 800046c:	1083fb58 	cmpnei	r2,r2,4077
 8000470:	10000826 	beq	r2,zero,8000494 <main+0x2a0>
	{
		printf("[ERROR]:routine mailbox data is %x\n",IORD(CY7C67200_BASE,HPI_MAILBOX));
 8000474:	00840034 	movhi	r2,4096
 8000478:	10800104 	addi	r2,r2,4
 800047c:	10800037 	ldwio	r2,0(r2)
 8000480:	01020074 	movhi	r4,2049
 8000484:	2137e504 	addi	r4,r4,-8300
 8000488:	100b883a 	mov	r5,r2
 800048c:	80020900 	call	8002090 <printf>
		goto USB_HOT_PLUG;
 8000490:	003f6606 	br	800022c <__alt_data_end+0xf800022c>
	}
	// STEP 2 end

	//usleep(30*1000);
	ctl_reg = USB1_CTL_REG;
 8000494:	00b02284 	movi	r2,-16246
 8000498:	d0a6a50d 	sth	r2,-25964(gp)
	no_device = (A_DP_STAT | A_DM_STAT);
 800049c:	008c0004 	movi	r2,12288
 80004a0:	d0a6a58d 	sth	r2,-25962(gp)
	fs_device = A_DP_STAT;
 80004a4:	00880004 	movi	r2,8192
 80004a8:	e0bffc0d 	sth	r2,-16(fp)

	usb_ctl_val = UsbRead(ctl_reg);
 80004ac:	d0a6a50b 	ldhu	r2,-25964(gp)
 80004b0:	10bfffcc 	andi	r2,r2,65535
 80004b4:	1009883a 	mov	r4,r2
 80004b8:	8000f440 	call	8000f44 <UsbRead>
 80004bc:	e0bffb0d 	sth	r2,-20(fp)

	if (!(usb_ctl_val & no_device))
 80004c0:	d0a6a58b 	ldhu	r2,-25962(gp)
 80004c4:	e0fffb0b 	ldhu	r3,-20(fp)
 80004c8:	1884703a 	and	r2,r3,r2
 80004cc:	10bfffcc 	andi	r2,r2,65535
 80004d0:	1000191e 	bne	r2,zero,8000538 <main+0x344>
	{
		printf("\n[INFO]: no device is present in SIE1!\n");
 80004d4:	01020074 	movhi	r4,2049
 80004d8:	2137ee04 	addi	r4,r4,-8264
 80004dc:	80021500 	call	8002150 <puts>
		printf("[INFO]: please insert a USB keyboard in SIE1!\n");
 80004e0:	01020074 	movhi	r4,2049
 80004e4:	2137f804 	addi	r4,r4,-8224
 80004e8:	80021500 	call	8002150 <puts>
		while (!(usb_ctl_val & no_device))
 80004ec:	00000c06 	br	8000520 <main+0x32c>
		{
			usb_ctl_val = UsbRead(ctl_reg);
 80004f0:	d0a6a50b 	ldhu	r2,-25964(gp)
 80004f4:	10bfffcc 	andi	r2,r2,65535
 80004f8:	1009883a 	mov	r4,r2
 80004fc:	8000f440 	call	8000f44 <UsbRead>
 8000500:	e0bffb0d 	sth	r2,-20(fp)
			if(usb_ctl_val & no_device)
 8000504:	d0a6a58b 	ldhu	r2,-25962(gp)
 8000508:	e0fffb0b 	ldhu	r3,-20(fp)
 800050c:	1884703a 	and	r2,r3,r2
 8000510:	10bfffcc 	andi	r2,r2,65535
 8000514:	103f421e 	bne	r2,zero,8000220 <__alt_data_end+0xf8000220>
				goto USB_HOT_PLUG;

			usleep(2000);
 8000518:	0101f404 	movi	r4,2000
 800051c:	800bfc80 	call	800bfc8 <usleep>

	if (!(usb_ctl_val & no_device))
	{
		printf("\n[INFO]: no device is present in SIE1!\n");
		printf("[INFO]: please insert a USB keyboard in SIE1!\n");
		while (!(usb_ctl_val & no_device))
 8000520:	d0a6a58b 	ldhu	r2,-25962(gp)
 8000524:	e0fffb0b 	ldhu	r3,-20(fp)
 8000528:	1884703a 	and	r2,r3,r2
 800052c:	10bfffcc 	andi	r2,r2,65535
 8000530:	103fef26 	beq	r2,zero,80004f0 <__alt_data_end+0xf80004f0>
 8000534:	00000c06 	br	8000568 <main+0x374>
		}
	}
	else
	{
		/* check for low speed or full speed by reading D+ and D- lines */
		if (usb_ctl_val & fs_device)
 8000538:	e0fffb0b 	ldhu	r3,-20(fp)
 800053c:	e0bffc0b 	ldhu	r2,-16(fp)
 8000540:	1884703a 	and	r2,r3,r2
 8000544:	10bfffcc 	andi	r2,r2,65535
 8000548:	10000426 	beq	r2,zero,800055c <main+0x368>
		{
			printf("[INFO]: full speed device\n");
 800054c:	01020074 	movhi	r4,2049
 8000550:	21380404 	addi	r4,r4,-8176
 8000554:	80021500 	call	8002150 <puts>
 8000558:	00000306 	br	8000568 <main+0x374>
		}
		else
		{
			printf("[INFO]: low speed device\n");
 800055c:	01020074 	movhi	r4,2049
 8000560:	21380b04 	addi	r4,r4,-8148
 8000564:	80021500 	call	8002150 <puts>

	//printf("[SIE1 INIT]:USB 1 Control Register reg is %x\n",UsbRead(0xC08A));

	// STEP 3 begin
	//------------------------------------------------------set address -----------------------------------------------------------------
	UsbSetAddress();
 8000568:	800103c0 	call	800103c <UsbSetAddress>

	while (!(IORD(CY7C67200_BASE,HPI_STATUS) & HPI_STATUS_SIE1msg_FLAG) )  //read sie1 msg register
 800056c:	00000306 	br	800057c <main+0x388>
	{
		UsbSetAddress();
 8000570:	800103c0 	call	800103c <UsbSetAddress>
		usleep(10*1000);
 8000574:	0109c404 	movi	r4,10000
 8000578:	800bfc80 	call	800bfc8 <usleep>

	// STEP 3 begin
	//------------------------------------------------------set address -----------------------------------------------------------------
	UsbSetAddress();

	while (!(IORD(CY7C67200_BASE,HPI_STATUS) & HPI_STATUS_SIE1msg_FLAG) )  //read sie1 msg register
 800057c:	00840034 	movhi	r2,4096
 8000580:	10800304 	addi	r2,r2,12
 8000584:	10800037 	ldwio	r2,0(r2)
 8000588:	1080040c 	andi	r2,r2,16
 800058c:	103ff826 	beq	r2,zero,8000570 <__alt_data_end+0xf8000570>
	{
		UsbSetAddress();
		usleep(10*1000);
	}

	UsbWaitTDListDone();
 8000590:	8001edc0 	call	8001edc <UsbWaitTDListDone>

	IOWR(CY7C67200_BASE,HPI_ADDR,0x0506); // i
 8000594:	00c14184 	movi	r3,1286
 8000598:	00840034 	movhi	r2,4096
 800059c:	10800204 	addi	r2,r2,8
 80005a0:	10c00035 	stwio	r3,0(r2)
	printf("[ENUM PROCESS]:step 3 TD Status Byte is %x\n",IORD(CY7C67200_BASE,HPI_DATA));
 80005a4:	00840034 	movhi	r2,4096
 80005a8:	10800037 	ldwio	r2,0(r2)
 80005ac:	01020074 	movhi	r4,2049
 80005b0:	21381204 	addi	r4,r4,-8120
 80005b4:	100b883a 	mov	r5,r2
 80005b8:	80020900 	call	8002090 <printf>

	IOWR(CY7C67200_BASE,HPI_ADDR,0x0508); // n
 80005bc:	00c14204 	movi	r3,1288
 80005c0:	00840034 	movhi	r2,4096
 80005c4:	10800204 	addi	r2,r2,8
 80005c8:	10c00035 	stwio	r3,0(r2)
	usb_ctl_val = IORD(CY7C67200_BASE,HPI_DATA);
 80005cc:	00840034 	movhi	r2,4096
 80005d0:	10800037 	ldwio	r2,0(r2)
 80005d4:	e0bffb0d 	sth	r2,-20(fp)
	printf("[ENUM PROCESS]:step 3 TD Control Byte is %x\n",usb_ctl_val);
 80005d8:	e0bffb0b 	ldhu	r2,-20(fp)
 80005dc:	01020074 	movhi	r4,2049
 80005e0:	21381d04 	addi	r4,r4,-8076
 80005e4:	100b883a 	mov	r5,r2
 80005e8:	80020900 	call	8002090 <printf>
	while (usb_ctl_val != 0x03) // retries occurred
 80005ec:	e0bffb0b 	ldhu	r2,-20(fp)
 80005f0:	108000e0 	cmpeqi	r2,r2,3
 80005f4:	1000031e 	bne	r2,zero,8000604 <main+0x410>
	{
		usb_ctl_val = UsbGetRetryCnt();
 80005f8:	8001f600 	call	8001f60 <UsbGetRetryCnt>
 80005fc:	e0bffb0d 	sth	r2,-20(fp)

		goto USB_HOT_PLUG;
 8000600:	003f0a06 	br	800022c <__alt_data_end+0xf800022c>
	}

	printf("------------[ENUM PROCESS]:set address done!---------------\n");
 8000604:	01020074 	movhi	r4,2049
 8000608:	21382904 	addi	r4,r4,-8028
 800060c:	80021500 	call	8002150 <puts>

	// STEP 4 begin
	//-------------------------------get device descriptor-1 -----------------------------------//
	UsbGetDeviceDesc1();
 8000610:	800113c0 	call	800113c <UsbGetDeviceDesc1>
	// TASK: Call the appropriate function for this step.

	//usleep(10*1000);
	while (!(IORD(CY7C67200_BASE,HPI_STATUS) & HPI_STATUS_SIE1msg_FLAG) )  //read sie1 msg register
 8000614:	00000306 	br	8000624 <main+0x430>
	{
		// TASK: Call the appropriate function again if it wasn't processed successfully.
		UsbGetDeviceDesc1();
 8000618:	800113c0 	call	800113c <UsbGetDeviceDesc1>
		usleep(10*1000);
 800061c:	0109c404 	movi	r4,10000
 8000620:	800bfc80 	call	800bfc8 <usleep>
	//-------------------------------get device descriptor-1 -----------------------------------//
	UsbGetDeviceDesc1();
	// TASK: Call the appropriate function for this step.

	//usleep(10*1000);
	while (!(IORD(CY7C67200_BASE,HPI_STATUS) & HPI_STATUS_SIE1msg_FLAG) )  //read sie1 msg register
 8000624:	00840034 	movhi	r2,4096
 8000628:	10800304 	addi	r2,r2,12
 800062c:	10800037 	ldwio	r2,0(r2)
 8000630:	1080040c 	andi	r2,r2,16
 8000634:	103ff826 	beq	r2,zero,8000618 <__alt_data_end+0xf8000618>
		// TASK: Call the appropriate function again if it wasn't processed successfully.
		UsbGetDeviceDesc1();
		usleep(10*1000);
	}

	UsbWaitTDListDone();
 8000638:	8001edc0 	call	8001edc <UsbWaitTDListDone>

	IOWR(CY7C67200_BASE,HPI_ADDR,0x0506);
 800063c:	00c14184 	movi	r3,1286
 8000640:	00840034 	movhi	r2,4096
 8000644:	10800204 	addi	r2,r2,8
 8000648:	10c00035 	stwio	r3,0(r2)
	printf("[ENUM PROCESS]:step 4 TD Status Byte is %x\n",IORD(CY7C67200_BASE,HPI_DATA));
 800064c:	00840034 	movhi	r2,4096
 8000650:	10800037 	ldwio	r2,0(r2)
 8000654:	01020074 	movhi	r4,2049
 8000658:	21383804 	addi	r4,r4,-7968
 800065c:	100b883a 	mov	r5,r2
 8000660:	80020900 	call	8002090 <printf>

	IOWR(CY7C67200_BASE,HPI_ADDR,0x0508);
 8000664:	00c14204 	movi	r3,1288
 8000668:	00840034 	movhi	r2,4096
 800066c:	10800204 	addi	r2,r2,8
 8000670:	10c00035 	stwio	r3,0(r2)
	usb_ctl_val = IORD(CY7C67200_BASE,HPI_DATA);
 8000674:	00840034 	movhi	r2,4096
 8000678:	10800037 	ldwio	r2,0(r2)
 800067c:	e0bffb0d 	sth	r2,-20(fp)
	printf("[ENUM PROCESS]:step 4 TD Control Byte is %x\n",usb_ctl_val);
 8000680:	e0bffb0b 	ldhu	r2,-20(fp)
 8000684:	01020074 	movhi	r4,2049
 8000688:	21384304 	addi	r4,r4,-7924
 800068c:	100b883a 	mov	r5,r2
 8000690:	80020900 	call	8002090 <printf>
	while (usb_ctl_val != 0x03)
 8000694:	00000206 	br	80006a0 <main+0x4ac>
	{
		usb_ctl_val = UsbGetRetryCnt();
 8000698:	8001f600 	call	8001f60 <UsbGetRetryCnt>
 800069c:	e0bffb0d 	sth	r2,-20(fp)
	printf("[ENUM PROCESS]:step 4 TD Status Byte is %x\n",IORD(CY7C67200_BASE,HPI_DATA));

	IOWR(CY7C67200_BASE,HPI_ADDR,0x0508);
	usb_ctl_val = IORD(CY7C67200_BASE,HPI_DATA);
	printf("[ENUM PROCESS]:step 4 TD Control Byte is %x\n",usb_ctl_val);
	while (usb_ctl_val != 0x03)
 80006a0:	e0bffb0b 	ldhu	r2,-20(fp)
 80006a4:	108000d8 	cmpnei	r2,r2,3
 80006a8:	103ffb1e 	bne	r2,zero,8000698 <__alt_data_end+0xf8000698>
	{
		usb_ctl_val = UsbGetRetryCnt();
	}

	printf("---------------[ENUM PROCESS]:get device descriptor-1 done!-----------------\n");
 80006ac:	01020074 	movhi	r4,2049
 80006b0:	21384f04 	addi	r4,r4,-7876
 80006b4:	80021500 	call	8002150 <puts>


	//--------------------------------get device descriptor-2---------------------------------------------//
	//get device descriptor
	// TASK: Call the appropriate function for this step.
	UsbGetDeviceDesc2();
 80006b8:	80012840 	call	8001284 <UsbGetDeviceDesc2>
	//usleep(100*1000);
	//if no message
	while (!(IORD(CY7C67200_BASE,HPI_STATUS) & HPI_STATUS_SIE1msg_FLAG) )  //read sie1 msg register
 80006bc:	00000306 	br	80006cc <main+0x4d8>
	{
		//resend the get device descriptor
		//get device descriptor
		// TASK: Call the appropriate function again if it wasn't processed successfully.
		UsbGetDeviceDesc2();
 80006c0:	80012840 	call	8001284 <UsbGetDeviceDesc2>
		usleep(10*1000);
 80006c4:	0109c404 	movi	r4,10000
 80006c8:	800bfc80 	call	800bfc8 <usleep>
	//get device descriptor
	// TASK: Call the appropriate function for this step.
	UsbGetDeviceDesc2();
	//usleep(100*1000);
	//if no message
	while (!(IORD(CY7C67200_BASE,HPI_STATUS) & HPI_STATUS_SIE1msg_FLAG) )  //read sie1 msg register
 80006cc:	00840034 	movhi	r2,4096
 80006d0:	10800304 	addi	r2,r2,12
 80006d4:	10800037 	ldwio	r2,0(r2)
 80006d8:	1080040c 	andi	r2,r2,16
 80006dc:	103ff826 	beq	r2,zero,80006c0 <__alt_data_end+0xf80006c0>
		// TASK: Call the appropriate function again if it wasn't processed successfully.
		UsbGetDeviceDesc2();
		usleep(10*1000);
	}

	UsbWaitTDListDone();
 80006e0:	8001edc0 	call	8001edc <UsbWaitTDListDone>

	IOWR(CY7C67200_BASE,HPI_ADDR,0x0506);
 80006e4:	00c14184 	movi	r3,1286
 80006e8:	00840034 	movhi	r2,4096
 80006ec:	10800204 	addi	r2,r2,8
 80006f0:	10c00035 	stwio	r3,0(r2)
	printf("[ENUM PROCESS]:step 4 TD Status Byte is %x\n",IORD(CY7C67200_BASE,HPI_DATA));
 80006f4:	00840034 	movhi	r2,4096
 80006f8:	10800037 	ldwio	r2,0(r2)
 80006fc:	01020074 	movhi	r4,2049
 8000700:	21383804 	addi	r4,r4,-7968
 8000704:	100b883a 	mov	r5,r2
 8000708:	80020900 	call	8002090 <printf>

	IOWR(CY7C67200_BASE,HPI_ADDR,0x0508);
 800070c:	00c14204 	movi	r3,1288
 8000710:	00840034 	movhi	r2,4096
 8000714:	10800204 	addi	r2,r2,8
 8000718:	10c00035 	stwio	r3,0(r2)
	usb_ctl_val = IORD(CY7C67200_BASE,HPI_DATA);
 800071c:	00840034 	movhi	r2,4096
 8000720:	10800037 	ldwio	r2,0(r2)
 8000724:	e0bffb0d 	sth	r2,-20(fp)
	printf("[ENUM PROCESS]:step 4 TD Control Byte is %x\n",usb_ctl_val);
 8000728:	e0bffb0b 	ldhu	r2,-20(fp)
 800072c:	01020074 	movhi	r4,2049
 8000730:	21384304 	addi	r4,r4,-7924
 8000734:	100b883a 	mov	r5,r2
 8000738:	80020900 	call	8002090 <printf>
	while (usb_ctl_val != 0x03)
 800073c:	00000206 	br	8000748 <main+0x554>
	{
		usb_ctl_val = UsbGetRetryCnt();
 8000740:	8001f600 	call	8001f60 <UsbGetRetryCnt>
 8000744:	e0bffb0d 	sth	r2,-20(fp)
	printf("[ENUM PROCESS]:step 4 TD Status Byte is %x\n",IORD(CY7C67200_BASE,HPI_DATA));

	IOWR(CY7C67200_BASE,HPI_ADDR,0x0508);
	usb_ctl_val = IORD(CY7C67200_BASE,HPI_DATA);
	printf("[ENUM PROCESS]:step 4 TD Control Byte is %x\n",usb_ctl_val);
	while (usb_ctl_val != 0x03)
 8000748:	e0bffb0b 	ldhu	r2,-20(fp)
 800074c:	108000d8 	cmpnei	r2,r2,3
 8000750:	103ffb1e 	bne	r2,zero,8000740 <__alt_data_end+0xf8000740>
	{
		usb_ctl_val = UsbGetRetryCnt();
	}

	printf("------------[ENUM PROCESS]:get device descriptor-2 done!--------------\n");
 8000754:	01020074 	movhi	r4,2049
 8000758:	21386304 	addi	r4,r4,-7796
 800075c:	80021500 	call	8002150 <puts>


	// STEP 5 begin
	//-----------------------------------get configuration descriptor -1 ----------------------------------//
	// TASK: Call the appropriate function for this step.
	UsbGetConfigDesc1();
 8000760:	800145c0 	call	800145c <UsbGetConfigDesc1>
	//usleep(10*1000);
	//if no message
	while (!(IORD(CY7C67200_BASE,HPI_STATUS) & HPI_STATUS_SIE1msg_FLAG) )  //read sie1 msg register
 8000764:	00000306 	br	8000774 <main+0x580>
	{
		//resend the get device descriptor
		//get device descriptor

		// TASK: Call the appropriate function again if it wasn't processed successfully.
		UsbGetConfigDesc1();
 8000768:	800145c0 	call	800145c <UsbGetConfigDesc1>
		usleep(10*1000);
 800076c:	0109c404 	movi	r4,10000
 8000770:	800bfc80 	call	800bfc8 <usleep>
	//-----------------------------------get configuration descriptor -1 ----------------------------------//
	// TASK: Call the appropriate function for this step.
	UsbGetConfigDesc1();
	//usleep(10*1000);
	//if no message
	while (!(IORD(CY7C67200_BASE,HPI_STATUS) & HPI_STATUS_SIE1msg_FLAG) )  //read sie1 msg register
 8000774:	00840034 	movhi	r2,4096
 8000778:	10800304 	addi	r2,r2,12
 800077c:	10800037 	ldwio	r2,0(r2)
 8000780:	1080040c 	andi	r2,r2,16
 8000784:	103ff826 	beq	r2,zero,8000768 <__alt_data_end+0xf8000768>
		// TASK: Call the appropriate function again if it wasn't processed successfully.
		UsbGetConfigDesc1();
		usleep(10*1000);
	}

	UsbWaitTDListDone();
 8000788:	8001edc0 	call	8001edc <UsbWaitTDListDone>

	IOWR(CY7C67200_BASE,HPI_ADDR,0x0506);
 800078c:	00c14184 	movi	r3,1286
 8000790:	00840034 	movhi	r2,4096
 8000794:	10800204 	addi	r2,r2,8
 8000798:	10c00035 	stwio	r3,0(r2)
	printf("[ENUM PROCESS]:step 5 TD Status Byte is %x\n",IORD(CY7C67200_BASE,HPI_DATA));
 800079c:	00840034 	movhi	r2,4096
 80007a0:	10800037 	ldwio	r2,0(r2)
 80007a4:	01020074 	movhi	r4,2049
 80007a8:	21387504 	addi	r4,r4,-7724
 80007ac:	100b883a 	mov	r5,r2
 80007b0:	80020900 	call	8002090 <printf>

	IOWR(CY7C67200_BASE,HPI_ADDR,0x0508);
 80007b4:	00c14204 	movi	r3,1288
 80007b8:	00840034 	movhi	r2,4096
 80007bc:	10800204 	addi	r2,r2,8
 80007c0:	10c00035 	stwio	r3,0(r2)
	usb_ctl_val = IORD(CY7C67200_BASE,HPI_DATA);
 80007c4:	00840034 	movhi	r2,4096
 80007c8:	10800037 	ldwio	r2,0(r2)
 80007cc:	e0bffb0d 	sth	r2,-20(fp)
	printf("[ENUM PROCESS]:step 5 TD Control Byte is %x\n",usb_ctl_val);
 80007d0:	e0bffb0b 	ldhu	r2,-20(fp)
 80007d4:	01020074 	movhi	r4,2049
 80007d8:	21388004 	addi	r4,r4,-7680
 80007dc:	100b883a 	mov	r5,r2
 80007e0:	80020900 	call	8002090 <printf>
	while (usb_ctl_val != 0x03)
 80007e4:	00000206 	br	80007f0 <main+0x5fc>
	{
		usb_ctl_val = UsbGetRetryCnt();
 80007e8:	8001f600 	call	8001f60 <UsbGetRetryCnt>
 80007ec:	e0bffb0d 	sth	r2,-20(fp)
	printf("[ENUM PROCESS]:step 5 TD Status Byte is %x\n",IORD(CY7C67200_BASE,HPI_DATA));

	IOWR(CY7C67200_BASE,HPI_ADDR,0x0508);
	usb_ctl_val = IORD(CY7C67200_BASE,HPI_DATA);
	printf("[ENUM PROCESS]:step 5 TD Control Byte is %x\n",usb_ctl_val);
	while (usb_ctl_val != 0x03)
 80007f0:	e0bffb0b 	ldhu	r2,-20(fp)
 80007f4:	108000d8 	cmpnei	r2,r2,3
 80007f8:	103ffb1e 	bne	r2,zero,80007e8 <__alt_data_end+0xf80007e8>
	{
		usb_ctl_val = UsbGetRetryCnt();
	}
	printf("------------[ENUM PROCESS]:get configuration descriptor-1 pass------------\n");
 80007fc:	01020074 	movhi	r4,2049
 8000800:	21388c04 	addi	r4,r4,-7632
 8000804:	80021500 	call	8002150 <puts>

	// STEP 6 begin
	//-----------------------------------get configuration descriptor-2------------------------------------//
	//get device descriptor
	// TASK: Call the appropriate function for this step.
	UsbGetConfigDesc2();
 8000808:	80015ec0 	call	80015ec <UsbGetConfigDesc2>
	usleep(100*1000);
 800080c:	010000b4 	movhi	r4,2
 8000810:	2121a804 	addi	r4,r4,-31072
 8000814:	800bfc80 	call	800bfc8 <usleep>
	//if no message
	while (!(IORD(CY7C67200_BASE,HPI_STATUS) & HPI_STATUS_SIE1msg_FLAG) )  //read sie1 msg register
 8000818:	00000306 	br	8000828 <main+0x634>
	{
		// TASK: Call the appropriate function again if it wasn't processed successfully.
		UsbGetConfigDesc2();
 800081c:	80015ec0 	call	80015ec <UsbGetConfigDesc2>
		usleep(10*1000);
 8000820:	0109c404 	movi	r4,10000
 8000824:	800bfc80 	call	800bfc8 <usleep>
	//get device descriptor
	// TASK: Call the appropriate function for this step.
	UsbGetConfigDesc2();
	usleep(100*1000);
	//if no message
	while (!(IORD(CY7C67200_BASE,HPI_STATUS) & HPI_STATUS_SIE1msg_FLAG) )  //read sie1 msg register
 8000828:	00840034 	movhi	r2,4096
 800082c:	10800304 	addi	r2,r2,12
 8000830:	10800037 	ldwio	r2,0(r2)
 8000834:	1080040c 	andi	r2,r2,16
 8000838:	103ff826 	beq	r2,zero,800081c <__alt_data_end+0xf800081c>
		// TASK: Call the appropriate function again if it wasn't processed successfully.
		UsbGetConfigDesc2();
		usleep(10*1000);
	}

	UsbWaitTDListDone();
 800083c:	8001edc0 	call	8001edc <UsbWaitTDListDone>

	IOWR(CY7C67200_BASE,HPI_ADDR,0x0506);
 8000840:	00c14184 	movi	r3,1286
 8000844:	00840034 	movhi	r2,4096
 8000848:	10800204 	addi	r2,r2,8
 800084c:	10c00035 	stwio	r3,0(r2)
	printf("[ENUM PROCESS]:step 6 TD Status Byte is %x\n",IORD(CY7C67200_BASE,HPI_DATA));
 8000850:	00840034 	movhi	r2,4096
 8000854:	10800037 	ldwio	r2,0(r2)
 8000858:	01020074 	movhi	r4,2049
 800085c:	21389f04 	addi	r4,r4,-7556
 8000860:	100b883a 	mov	r5,r2
 8000864:	80020900 	call	8002090 <printf>

	IOWR(CY7C67200_BASE,HPI_ADDR,0x0508);
 8000868:	00c14204 	movi	r3,1288
 800086c:	00840034 	movhi	r2,4096
 8000870:	10800204 	addi	r2,r2,8
 8000874:	10c00035 	stwio	r3,0(r2)
	usb_ctl_val = IORD(CY7C67200_BASE,HPI_DATA);
 8000878:	00840034 	movhi	r2,4096
 800087c:	10800037 	ldwio	r2,0(r2)
 8000880:	e0bffb0d 	sth	r2,-20(fp)
	printf("[ENUM PROCESS]:step 6 TD Control Byte is %x\n",usb_ctl_val);
 8000884:	e0bffb0b 	ldhu	r2,-20(fp)
 8000888:	01020074 	movhi	r4,2049
 800088c:	2138aa04 	addi	r4,r4,-7512
 8000890:	100b883a 	mov	r5,r2
 8000894:	80020900 	call	8002090 <printf>
	while (usb_ctl_val != 0x03)
 8000898:	00000206 	br	80008a4 <main+0x6b0>
	{
		usb_ctl_val = UsbGetRetryCnt();
 800089c:	8001f600 	call	8001f60 <UsbGetRetryCnt>
 80008a0:	e0bffb0d 	sth	r2,-20(fp)
	printf("[ENUM PROCESS]:step 6 TD Status Byte is %x\n",IORD(CY7C67200_BASE,HPI_DATA));

	IOWR(CY7C67200_BASE,HPI_ADDR,0x0508);
	usb_ctl_val = IORD(CY7C67200_BASE,HPI_DATA);
	printf("[ENUM PROCESS]:step 6 TD Control Byte is %x\n",usb_ctl_val);
	while (usb_ctl_val != 0x03)
 80008a4:	e0bffb0b 	ldhu	r2,-20(fp)
 80008a8:	108000d8 	cmpnei	r2,r2,3
 80008ac:	103ffb1e 	bne	r2,zero,800089c <__alt_data_end+0xf800089c>
	{
		usb_ctl_val = UsbGetRetryCnt();
	}


	printf("-----------[ENUM PROCESS]:get configuration descriptor-2 done!------------\n");
 80008b0:	01020074 	movhi	r4,2049
 80008b4:	2138b604 	addi	r4,r4,-7464
 80008b8:	80021500 	call	8002150 <puts>


	// ---------------------------------get device info---------------------------------------------//

	// TASK: Write the address to read from the memory for byte 7 of the interface descriptor to HPI_ADDR.
	IOWR(CY7C67200_BASE,HPI_ADDR,0x056c);
 80008bc:	00c15b04 	movi	r3,1388
 80008c0:	00840034 	movhi	r2,4096
 80008c4:	10800204 	addi	r2,r2,8
 80008c8:	10c00035 	stwio	r3,0(r2)
	code = IORD(CY7C67200_BASE,HPI_DATA);
 80008cc:	00840034 	movhi	r2,4096
 80008d0:	10800037 	ldwio	r2,0(r2)
 80008d4:	e0bffe8d 	sth	r2,-6(fp)
	printf("\ncode = %x\n", code);
 80008d8:	e0bffe8b 	ldhu	r2,-6(fp)
 80008dc:	01020074 	movhi	r4,2049
 80008e0:	2138c904 	addi	r4,r4,-7388
 80008e4:	100b883a 	mov	r5,r2
 80008e8:	80020900 	call	8002090 <printf>
	code = code & 0x0ff;
 80008ec:	e0bffe8b 	ldhu	r2,-6(fp)
 80008f0:	10803fcc 	andi	r2,r2,255
 80008f4:	e0bffe8d 	sth	r2,-6(fp)
	if (code == 0x01)
 80008f8:	e0bffe8b 	ldhu	r2,-6(fp)
 80008fc:	10800058 	cmpnei	r2,r2,1
 8000900:	1000041e 	bne	r2,zero,8000914 <main+0x720>
	{
		printf("\n[INFO]:check TD rec data7 \n[INFO]:Keyboard Detected!!!\n\n");
 8000904:	01020074 	movhi	r4,2049
 8000908:	2138cc04 	addi	r4,r4,-7376
 800090c:	80021500 	call	8002150 <puts>
 8000910:	00000306 	br	8000920 <main+0x72c>
	}
	else
	{
		//printf("\nvalue= %x\n", code);
		printf("\n[INFO]:Keyboard Not Detected!!! \n\n");
 8000914:	01020074 	movhi	r4,2049
 8000918:	2138db04 	addi	r4,r4,-7316
 800091c:	80021500 	call	8002150 <puts>
	}

	// TASK: Write the address to read from the memory for the endpoint descriptor to HPI_ADDR.
	IOWR(CY7C67200_BASE,HPI_ADDR,0x057B);
 8000920:	00c15ec4 	movi	r3,1403
 8000924:	00840034 	movhi	r2,4096
 8000928:	10800204 	addi	r2,r2,8
 800092c:	10c00035 	stwio	r3,0(r2)
	//data_size = (IORD(CY7C67200_BASE,HPI_DATA)>>8)&0x0ff;
	data_size = 8;
 8000930:	00800204 	movi	r2,8
 8000934:	e0bfff05 	stb	r2,-4(fp)
	printf("[ENUM PROCESS]:data packet size is %d\n",data_size);
 8000938:	e0bfff03 	ldbu	r2,-4(fp)
 800093c:	01020074 	movhi	r4,2049
 8000940:	2138e404 	addi	r4,r4,-7280
 8000944:	100b883a 	mov	r5,r2
 8000948:	80020900 	call	8002090 <printf>

	// STEP 7 begin
	//------------------------------------set configuration -----------------------------------------//
	// TASK: Call the appropriate function for this step.
	UsbSetConfig();
 800094c:	80018540 	call	8001854 <UsbSetConfig>
	//usleep(10*1000);

	while (!(IORD(CY7C67200_BASE,HPI_STATUS) & HPI_STATUS_SIE1msg_FLAG) )  //read sie1 msg register
 8000950:	00000306 	br	8000960 <main+0x76c>
	{
		// TASK: Call the appropriate function again if it wasn't processed successfully.
		UsbSetConfig();
 8000954:	80018540 	call	8001854 <UsbSetConfig>
		usleep(10*1000);
 8000958:	0109c404 	movi	r4,10000
 800095c:	800bfc80 	call	800bfc8 <usleep>
	//------------------------------------set configuration -----------------------------------------//
	// TASK: Call the appropriate function for this step.
	UsbSetConfig();
	//usleep(10*1000);

	while (!(IORD(CY7C67200_BASE,HPI_STATUS) & HPI_STATUS_SIE1msg_FLAG) )  //read sie1 msg register
 8000960:	00840034 	movhi	r2,4096
 8000964:	10800304 	addi	r2,r2,12
 8000968:	10800037 	ldwio	r2,0(r2)
 800096c:	1080040c 	andi	r2,r2,16
 8000970:	103ff826 	beq	r2,zero,8000954 <__alt_data_end+0xf8000954>
		// TASK: Call the appropriate function again if it wasn't processed successfully.
		UsbSetConfig();
		usleep(10*1000);
	}

	UsbWaitTDListDone();
 8000974:	8001edc0 	call	8001edc <UsbWaitTDListDone>

	IOWR(CY7C67200_BASE,HPI_ADDR,0x0506);
 8000978:	00c14184 	movi	r3,1286
 800097c:	00840034 	movhi	r2,4096
 8000980:	10800204 	addi	r2,r2,8
 8000984:	10c00035 	stwio	r3,0(r2)
	printf("[ENUM PROCESS]:step 7 TD Status Byte is %x\n",IORD(CY7C67200_BASE,HPI_DATA));
 8000988:	00840034 	movhi	r2,4096
 800098c:	10800037 	ldwio	r2,0(r2)
 8000990:	01020074 	movhi	r4,2049
 8000994:	2138ee04 	addi	r4,r4,-7240
 8000998:	100b883a 	mov	r5,r2
 800099c:	80020900 	call	8002090 <printf>

	IOWR(CY7C67200_BASE,HPI_ADDR,0x0508);
 80009a0:	00c14204 	movi	r3,1288
 80009a4:	00840034 	movhi	r2,4096
 80009a8:	10800204 	addi	r2,r2,8
 80009ac:	10c00035 	stwio	r3,0(r2)
	usb_ctl_val = IORD(CY7C67200_BASE,HPI_DATA);
 80009b0:	00840034 	movhi	r2,4096
 80009b4:	10800037 	ldwio	r2,0(r2)
 80009b8:	e0bffb0d 	sth	r2,-20(fp)
	printf("[ENUM PROCESS]:step 7 TD Control Byte is %x\n",usb_ctl_val);
 80009bc:	e0bffb0b 	ldhu	r2,-20(fp)
 80009c0:	01020074 	movhi	r4,2049
 80009c4:	2138f904 	addi	r4,r4,-7196
 80009c8:	100b883a 	mov	r5,r2
 80009cc:	80020900 	call	8002090 <printf>
	while (usb_ctl_val != 0x03)
 80009d0:	00000206 	br	80009dc <main+0x7e8>
	{
		usb_ctl_val = UsbGetRetryCnt();
 80009d4:	8001f600 	call	8001f60 <UsbGetRetryCnt>
 80009d8:	e0bffb0d 	sth	r2,-20(fp)
	printf("[ENUM PROCESS]:step 7 TD Status Byte is %x\n",IORD(CY7C67200_BASE,HPI_DATA));

	IOWR(CY7C67200_BASE,HPI_ADDR,0x0508);
	usb_ctl_val = IORD(CY7C67200_BASE,HPI_DATA);
	printf("[ENUM PROCESS]:step 7 TD Control Byte is %x\n",usb_ctl_val);
	while (usb_ctl_val != 0x03)
 80009dc:	e0bffb0b 	ldhu	r2,-20(fp)
 80009e0:	108000d8 	cmpnei	r2,r2,3
 80009e4:	103ffb1e 	bne	r2,zero,80009d4 <__alt_data_end+0xf80009d4>
	{
		usb_ctl_val = UsbGetRetryCnt();
	}

	printf("------------[ENUM PROCESS]:set configuration done!-------------------\n");
 80009e8:	01020074 	movhi	r4,2049
 80009ec:	21390504 	addi	r4,r4,-7148
 80009f0:	80021500 	call	8002150 <puts>

	//----------------------------------------------class request out ------------------------------------------//
	// TASK: Call the appropriate function for this step.
	UsbClassRequest();
 80009f4:	80019540 	call	8001954 <UsbClassRequest>
	//usleep(10*1000);

	while (!(IORD(CY7C67200_BASE,HPI_STATUS) & HPI_STATUS_SIE1msg_FLAG) )  //read sie1 msg register
 80009f8:	00000306 	br	8000a08 <main+0x814>
	{
		// TASK: Call the appropriate function again if it wasn't processed successfully.
		UsbClassRequest();
 80009fc:	80019540 	call	8001954 <UsbClassRequest>
		usleep(10*1000);
 8000a00:	0109c404 	movi	r4,10000
 8000a04:	800bfc80 	call	800bfc8 <usleep>
	//----------------------------------------------class request out ------------------------------------------//
	// TASK: Call the appropriate function for this step.
	UsbClassRequest();
	//usleep(10*1000);

	while (!(IORD(CY7C67200_BASE,HPI_STATUS) & HPI_STATUS_SIE1msg_FLAG) )  //read sie1 msg register
 8000a08:	00840034 	movhi	r2,4096
 8000a0c:	10800304 	addi	r2,r2,12
 8000a10:	10800037 	ldwio	r2,0(r2)
 8000a14:	1080040c 	andi	r2,r2,16
 8000a18:	103ff826 	beq	r2,zero,80009fc <__alt_data_end+0xf80009fc>
		// TASK: Call the appropriate function again if it wasn't processed successfully.
		UsbClassRequest();
		usleep(10*1000);
	}

	UsbWaitTDListDone();
 8000a1c:	8001edc0 	call	8001edc <UsbWaitTDListDone>

	IOWR(CY7C67200_BASE,HPI_ADDR,0x0506);
 8000a20:	00c14184 	movi	r3,1286
 8000a24:	00840034 	movhi	r2,4096
 8000a28:	10800204 	addi	r2,r2,8
 8000a2c:	10c00035 	stwio	r3,0(r2)
	printf("[ENUM PROCESS]:step 8 TD Status Byte is %x\n",IORD(CY7C67200_BASE,HPI_DATA));
 8000a30:	00840034 	movhi	r2,4096
 8000a34:	10800037 	ldwio	r2,0(r2)
 8000a38:	01020074 	movhi	r4,2049
 8000a3c:	21391704 	addi	r4,r4,-7076
 8000a40:	100b883a 	mov	r5,r2
 8000a44:	80020900 	call	8002090 <printf>

	IOWR(CY7C67200_BASE,HPI_ADDR,0x0508);
 8000a48:	00c14204 	movi	r3,1288
 8000a4c:	00840034 	movhi	r2,4096
 8000a50:	10800204 	addi	r2,r2,8
 8000a54:	10c00035 	stwio	r3,0(r2)
	usb_ctl_val = IORD(CY7C67200_BASE,HPI_DATA);
 8000a58:	00840034 	movhi	r2,4096
 8000a5c:	10800037 	ldwio	r2,0(r2)
 8000a60:	e0bffb0d 	sth	r2,-20(fp)
	printf("[ENUM PROCESS]:step 8 TD Control Byte is %x\n",usb_ctl_val);
 8000a64:	e0bffb0b 	ldhu	r2,-20(fp)
 8000a68:	01020074 	movhi	r4,2049
 8000a6c:	21392204 	addi	r4,r4,-7032
 8000a70:	100b883a 	mov	r5,r2
 8000a74:	80020900 	call	8002090 <printf>
	while (usb_ctl_val != 0x03)
 8000a78:	00000206 	br	8000a84 <main+0x890>
	{
		usb_ctl_val = UsbGetRetryCnt();
 8000a7c:	8001f600 	call	8001f60 <UsbGetRetryCnt>
 8000a80:	e0bffb0d 	sth	r2,-20(fp)
	printf("[ENUM PROCESS]:step 8 TD Status Byte is %x\n",IORD(CY7C67200_BASE,HPI_DATA));

	IOWR(CY7C67200_BASE,HPI_ADDR,0x0508);
	usb_ctl_val = IORD(CY7C67200_BASE,HPI_DATA);
	printf("[ENUM PROCESS]:step 8 TD Control Byte is %x\n",usb_ctl_val);
	while (usb_ctl_val != 0x03)
 8000a84:	e0bffb0b 	ldhu	r2,-20(fp)
 8000a88:	108000d8 	cmpnei	r2,r2,3
 8000a8c:	103ffb1e 	bne	r2,zero,8000a7c <__alt_data_end+0xf8000a7c>
	{
		usb_ctl_val = UsbGetRetryCnt();
	}


	printf("------------[ENUM PROCESS]:class request out done!-------------------\n");
 8000a90:	01020074 	movhi	r4,2049
 8000a94:	21392e04 	addi	r4,r4,-6984
 8000a98:	80021500 	call	8002150 <puts>

	// STEP 8 begin
	//----------------------------------get descriptor(class 0x21 = HID) request out --------------------------------//
	// TASK: Call the appropriate function for this step.
	UsbGetHidDesc();
 8000a9c:	8001a540 	call	8001a54 <UsbGetHidDesc>
	//usleep(10*1000);

	while (!(IORD(CY7C67200_BASE,HPI_STATUS) & HPI_STATUS_SIE1msg_FLAG) )  //read sie1 msg register
 8000aa0:	00000306 	br	8000ab0 <main+0x8bc>
	{
		// TASK: Call the appropriate function again if it wasn't processed successfully.
		UsbGetHidDesc();
 8000aa4:	8001a540 	call	8001a54 <UsbGetHidDesc>
		usleep(10*1000);
 8000aa8:	0109c404 	movi	r4,10000
 8000aac:	800bfc80 	call	800bfc8 <usleep>
	//----------------------------------get descriptor(class 0x21 = HID) request out --------------------------------//
	// TASK: Call the appropriate function for this step.
	UsbGetHidDesc();
	//usleep(10*1000);

	while (!(IORD(CY7C67200_BASE,HPI_STATUS) & HPI_STATUS_SIE1msg_FLAG) )  //read sie1 msg register
 8000ab0:	00840034 	movhi	r2,4096
 8000ab4:	10800304 	addi	r2,r2,12
 8000ab8:	10800037 	ldwio	r2,0(r2)
 8000abc:	1080040c 	andi	r2,r2,16
 8000ac0:	103ff826 	beq	r2,zero,8000aa4 <__alt_data_end+0xf8000aa4>
		// TASK: Call the appropriate function again if it wasn't processed successfully.
		UsbGetHidDesc();
		usleep(10*1000);
	}

	UsbWaitTDListDone();
 8000ac4:	8001edc0 	call	8001edc <UsbWaitTDListDone>

	IOWR(CY7C67200_BASE,HPI_ADDR,0x0506);
 8000ac8:	00c14184 	movi	r3,1286
 8000acc:	00840034 	movhi	r2,4096
 8000ad0:	10800204 	addi	r2,r2,8
 8000ad4:	10c00035 	stwio	r3,0(r2)
	printf("[ENUM PROCESS]:step 8 TD Status Byte is %x\n",IORD(CY7C67200_BASE,HPI_DATA));
 8000ad8:	00840034 	movhi	r2,4096
 8000adc:	10800037 	ldwio	r2,0(r2)
 8000ae0:	01020074 	movhi	r4,2049
 8000ae4:	21391704 	addi	r4,r4,-7076
 8000ae8:	100b883a 	mov	r5,r2
 8000aec:	80020900 	call	8002090 <printf>

	IOWR(CY7C67200_BASE,HPI_ADDR,0x0508);
 8000af0:	00c14204 	movi	r3,1288
 8000af4:	00840034 	movhi	r2,4096
 8000af8:	10800204 	addi	r2,r2,8
 8000afc:	10c00035 	stwio	r3,0(r2)
	usb_ctl_val = IORD(CY7C67200_BASE,HPI_DATA);
 8000b00:	00840034 	movhi	r2,4096
 8000b04:	10800037 	ldwio	r2,0(r2)
 8000b08:	e0bffb0d 	sth	r2,-20(fp)
	printf("[ENUM PROCESS]:step 8 TD Control Byte is %x\n",usb_ctl_val);
 8000b0c:	e0bffb0b 	ldhu	r2,-20(fp)
 8000b10:	01020074 	movhi	r4,2049
 8000b14:	21392204 	addi	r4,r4,-7032
 8000b18:	100b883a 	mov	r5,r2
 8000b1c:	80020900 	call	8002090 <printf>
	while (usb_ctl_val != 0x03)
 8000b20:	00000206 	br	8000b2c <main+0x938>
	{
		usb_ctl_val = UsbGetRetryCnt();
 8000b24:	8001f600 	call	8001f60 <UsbGetRetryCnt>
 8000b28:	e0bffb0d 	sth	r2,-20(fp)
	printf("[ENUM PROCESS]:step 8 TD Status Byte is %x\n",IORD(CY7C67200_BASE,HPI_DATA));

	IOWR(CY7C67200_BASE,HPI_ADDR,0x0508);
	usb_ctl_val = IORD(CY7C67200_BASE,HPI_DATA);
	printf("[ENUM PROCESS]:step 8 TD Control Byte is %x\n",usb_ctl_val);
	while (usb_ctl_val != 0x03)
 8000b2c:	e0bffb0b 	ldhu	r2,-20(fp)
 8000b30:	108000d8 	cmpnei	r2,r2,3
 8000b34:	103ffb1e 	bne	r2,zero,8000b24 <__alt_data_end+0xf8000b24>
	{
		usb_ctl_val = UsbGetRetryCnt();
	}

	printf("------------[ENUM PROCESS]:get descriptor (class 0x21) done!-------------------\n");
 8000b38:	01020074 	movhi	r4,2049
 8000b3c:	21394004 	addi	r4,r4,-6912
 8000b40:	80021500 	call	8002150 <puts>

	// STEP 9 begin
	//-------------------------------get descriptor (class 0x22 = report)-------------------------------------------//
	// TASK: Call the appropriate function for this step.
	UsbGetReportDesc();
 8000b44:	8001b9c0 	call	8001b9c <UsbGetReportDesc>
	//usleep(100*1000);
	//if no message
	while (!(IORD(CY7C67200_BASE,HPI_STATUS) & HPI_STATUS_SIE1msg_FLAG) )  //read sie1 msg register
 8000b48:	00000306 	br	8000b58 <main+0x964>
	{
		// TASK: Call the appropriate function again if it wasn't processed successfully.
		UsbGetReportDesc();
 8000b4c:	8001b9c0 	call	8001b9c <UsbGetReportDesc>
		usleep(10*1000);
 8000b50:	0109c404 	movi	r4,10000
 8000b54:	800bfc80 	call	800bfc8 <usleep>
	//-------------------------------get descriptor (class 0x22 = report)-------------------------------------------//
	// TASK: Call the appropriate function for this step.
	UsbGetReportDesc();
	//usleep(100*1000);
	//if no message
	while (!(IORD(CY7C67200_BASE,HPI_STATUS) & HPI_STATUS_SIE1msg_FLAG) )  //read sie1 msg register
 8000b58:	00840034 	movhi	r2,4096
 8000b5c:	10800304 	addi	r2,r2,12
 8000b60:	10800037 	ldwio	r2,0(r2)
 8000b64:	1080040c 	andi	r2,r2,16
 8000b68:	103ff826 	beq	r2,zero,8000b4c <__alt_data_end+0xf8000b4c>
		// TASK: Call the appropriate function again if it wasn't processed successfully.
		UsbGetReportDesc();
		usleep(10*1000);
	}

	UsbWaitTDListDone();
 8000b6c:	8001edc0 	call	8001edc <UsbWaitTDListDone>

	IOWR(CY7C67200_BASE,HPI_ADDR,0x0506);
 8000b70:	00c14184 	movi	r3,1286
 8000b74:	00840034 	movhi	r2,4096
 8000b78:	10800204 	addi	r2,r2,8
 8000b7c:	10c00035 	stwio	r3,0(r2)
	printf("[ENUM PROCESS]: step 9 TD Status Byte is %x\n",IORD(CY7C67200_BASE,HPI_DATA));
 8000b80:	00840034 	movhi	r2,4096
 8000b84:	10800037 	ldwio	r2,0(r2)
 8000b88:	01020074 	movhi	r4,2049
 8000b8c:	21395404 	addi	r4,r4,-6832
 8000b90:	100b883a 	mov	r5,r2
 8000b94:	80020900 	call	8002090 <printf>

	IOWR(CY7C67200_BASE,HPI_ADDR,0x0508);
 8000b98:	00c14204 	movi	r3,1288
 8000b9c:	00840034 	movhi	r2,4096
 8000ba0:	10800204 	addi	r2,r2,8
 8000ba4:	10c00035 	stwio	r3,0(r2)
	usb_ctl_val = IORD(CY7C67200_BASE,HPI_DATA);
 8000ba8:	00840034 	movhi	r2,4096
 8000bac:	10800037 	ldwio	r2,0(r2)
 8000bb0:	e0bffb0d 	sth	r2,-20(fp)
	printf("[ENUM PROCESS]: step 9 TD Control Byte is %x\n",usb_ctl_val);
 8000bb4:	e0bffb0b 	ldhu	r2,-20(fp)
 8000bb8:	01020074 	movhi	r4,2049
 8000bbc:	21396004 	addi	r4,r4,-6784
 8000bc0:	100b883a 	mov	r5,r2
 8000bc4:	80020900 	call	8002090 <printf>
	while (usb_ctl_val != 0x03)
 8000bc8:	00000206 	br	8000bd4 <main+0x9e0>
	{
		usb_ctl_val = UsbGetRetryCnt();
 8000bcc:	8001f600 	call	8001f60 <UsbGetRetryCnt>
 8000bd0:	e0bffb0d 	sth	r2,-20(fp)
	printf("[ENUM PROCESS]: step 9 TD Status Byte is %x\n",IORD(CY7C67200_BASE,HPI_DATA));

	IOWR(CY7C67200_BASE,HPI_ADDR,0x0508);
	usb_ctl_val = IORD(CY7C67200_BASE,HPI_DATA);
	printf("[ENUM PROCESS]: step 9 TD Control Byte is %x\n",usb_ctl_val);
	while (usb_ctl_val != 0x03)
 8000bd4:	e0bffb0b 	ldhu	r2,-20(fp)
 8000bd8:	108000d8 	cmpnei	r2,r2,3
 8000bdc:	103ffb1e 	bne	r2,zero,8000bcc <__alt_data_end+0xf8000bcc>
	{
		usb_ctl_val = UsbGetRetryCnt();
	}

	printf("---------------[ENUM PROCESS]:get descriptor (class 0x22) done!----------------\n");
 8000be0:	01020074 	movhi	r4,2049
 8000be4:	21396c04 	addi	r4,r4,-6736
 8000be8:	80021500 	call	8002150 <puts>



	//-----------------------------------get keycode value------------------------------------------------//
	usleep(10000);
 8000bec:	0109c404 	movi	r4,10000
 8000bf0:	800bfc80 	call	800bfc8 <usleep>
	while(1)
	{
		toggle++;
 8000bf4:	e0bffb83 	ldbu	r2,-18(fp)
 8000bf8:	10800044 	addi	r2,r2,1
 8000bfc:	e0bffb85 	stb	r2,-18(fp)
		IOWR(CY7C67200_BASE,HPI_ADDR,0x0500); //the start address
 8000c00:	00c14004 	movi	r3,1280
 8000c04:	00840034 	movhi	r2,4096
 8000c08:	10800204 	addi	r2,r2,8
 8000c0c:	10c00035 	stwio	r3,0(r2)
		//data phase IN-1
		IOWR(CY7C67200_BASE,HPI_DATA,0x051c); //500
 8000c10:	00c14704 	movi	r3,1308
 8000c14:	00840034 	movhi	r2,4096
 8000c18:	10c00035 	stwio	r3,0(r2)

		IOWR(CY7C67200_BASE,HPI_DATA,0x000f & data_size);//2 data length
 8000c1c:	e0bfff03 	ldbu	r2,-4(fp)
 8000c20:	10c003cc 	andi	r3,r2,15
 8000c24:	00840034 	movhi	r2,4096
 8000c28:	10c00035 	stwio	r3,0(r2)

		IOWR(CY7C67200_BASE,HPI_DATA,0x0291);//4 //endpoint 1
 8000c2c:	00c0a444 	movi	r3,657
 8000c30:	00840034 	movhi	r2,4096
 8000c34:	10c00035 	stwio	r3,0(r2)
		if(toggle%2)
 8000c38:	e0bffb83 	ldbu	r2,-18(fp)
 8000c3c:	1080004c 	andi	r2,r2,1
 8000c40:	10803fcc 	andi	r2,r2,255
 8000c44:	10000426 	beq	r2,zero,8000c58 <main+0xa64>
		{
			IOWR(CY7C67200_BASE,HPI_DATA,0x0001);//6 //data 1
 8000c48:	00c00044 	movi	r3,1
 8000c4c:	00840034 	movhi	r2,4096
 8000c50:	10c00035 	stwio	r3,0(r2)
 8000c54:	00000306 	br	8000c64 <main+0xa70>
		}
		else
		{
			IOWR(CY7C67200_BASE,HPI_DATA,0x0041);//6 //data 1
 8000c58:	00c01044 	movi	r3,65
 8000c5c:	00840034 	movhi	r2,4096
 8000c60:	10c00035 	stwio	r3,0(r2)
		}
		IOWR(CY7C67200_BASE,HPI_DATA,0x0013);//8
 8000c64:	00c004c4 	movi	r3,19
 8000c68:	00840034 	movhi	r2,4096
 8000c6c:	10c00035 	stwio	r3,0(r2)
		IOWR(CY7C67200_BASE,HPI_DATA,0x0000);//a
 8000c70:	0007883a 	mov	r3,zero
 8000c74:	00840034 	movhi	r2,4096
 8000c78:	10c00035 	stwio	r3,0(r2)
		UsbWrite(HUSB_SIE1_pCurrentTDPtr,0x0500); //HUSB_SIE1_pCurrentTDPtr
 8000c7c:	01006c04 	movi	r4,432
 8000c80:	01414004 	movi	r5,1280
 8000c84:	8000efc0 	call	8000efc <UsbWrite>
		//usleep(10*1000);
		while (!(IORD(CY7C67200_BASE,HPI_STATUS) & HPI_STATUS_SIE1msg_FLAG) )  //read sie1 msg register
 8000c88:	00002406 	br	8000d1c <main+0xb28>
		{
			IOWR(CY7C67200_BASE,HPI_ADDR,0x0500); //the start address
 8000c8c:	00c14004 	movi	r3,1280
 8000c90:	00840034 	movhi	r2,4096
 8000c94:	10800204 	addi	r2,r2,8
 8000c98:	10c00035 	stwio	r3,0(r2)
			//data phase IN-1
			IOWR(CY7C67200_BASE,HPI_DATA,0x051c); //500
 8000c9c:	00c14704 	movi	r3,1308
 8000ca0:	00840034 	movhi	r2,4096
 8000ca4:	10c00035 	stwio	r3,0(r2)

			IOWR(CY7C67200_BASE,HPI_DATA,0x000f & data_size);//2 data length
 8000ca8:	e0bfff03 	ldbu	r2,-4(fp)
 8000cac:	10c003cc 	andi	r3,r2,15
 8000cb0:	00840034 	movhi	r2,4096
 8000cb4:	10c00035 	stwio	r3,0(r2)

			IOWR(CY7C67200_BASE,HPI_DATA,0x0291);//4 //endpoint 1
 8000cb8:	00c0a444 	movi	r3,657
 8000cbc:	00840034 	movhi	r2,4096
 8000cc0:	10c00035 	stwio	r3,0(r2)
			if(toggle%2)
 8000cc4:	e0bffb83 	ldbu	r2,-18(fp)
 8000cc8:	1080004c 	andi	r2,r2,1
 8000ccc:	10803fcc 	andi	r2,r2,255
 8000cd0:	10000426 	beq	r2,zero,8000ce4 <main+0xaf0>
			{
				IOWR(CY7C67200_BASE,HPI_DATA,0x0001);//6 //data 1
 8000cd4:	00c00044 	movi	r3,1
 8000cd8:	00840034 	movhi	r2,4096
 8000cdc:	10c00035 	stwio	r3,0(r2)
 8000ce0:	00000306 	br	8000cf0 <main+0xafc>
			}
			else
			{
				IOWR(CY7C67200_BASE,HPI_DATA,0x0041);//6 //data 1
 8000ce4:	00c01044 	movi	r3,65
 8000ce8:	00840034 	movhi	r2,4096
 8000cec:	10c00035 	stwio	r3,0(r2)
			}
			IOWR(CY7C67200_BASE,HPI_DATA,0x0013);//8
 8000cf0:	00c004c4 	movi	r3,19
 8000cf4:	00840034 	movhi	r2,4096
 8000cf8:	10c00035 	stwio	r3,0(r2)
			IOWR(CY7C67200_BASE,HPI_DATA,0x0000);//
 8000cfc:	0007883a 	mov	r3,zero
 8000d00:	00840034 	movhi	r2,4096
 8000d04:	10c00035 	stwio	r3,0(r2)
			UsbWrite(HUSB_SIE1_pCurrentTDPtr,0x0500); //HUSB_SIE1_pCurrentTDPtr
 8000d08:	01006c04 	movi	r4,432
 8000d0c:	01414004 	movi	r5,1280
 8000d10:	8000efc0 	call	8000efc <UsbWrite>
			usleep(10*1000);
 8000d14:	0109c404 	movi	r4,10000
 8000d18:	800bfc80 	call	800bfc8 <usleep>
		}
		IOWR(CY7C67200_BASE,HPI_DATA,0x0013);//8
		IOWR(CY7C67200_BASE,HPI_DATA,0x0000);//a
		UsbWrite(HUSB_SIE1_pCurrentTDPtr,0x0500); //HUSB_SIE1_pCurrentTDPtr
		//usleep(10*1000);
		while (!(IORD(CY7C67200_BASE,HPI_STATUS) & HPI_STATUS_SIE1msg_FLAG) )  //read sie1 msg register
 8000d1c:	00840034 	movhi	r2,4096
 8000d20:	10800304 	addi	r2,r2,12
 8000d24:	10800037 	ldwio	r2,0(r2)
 8000d28:	1080040c 	andi	r2,r2,16
 8000d2c:	103fd726 	beq	r2,zero,8000c8c <__alt_data_end+0xf8000c8c>
			UsbWrite(HUSB_SIE1_pCurrentTDPtr,0x0500); //HUSB_SIE1_pCurrentTDPtr
			usleep(10*1000);
		}//end while


		usb_ctl_val = UsbWaitTDListDone();
 8000d30:	8001edc0 	call	8001edc <UsbWaitTDListDone>
 8000d34:	e0bffb0d 	sth	r2,-20(fp)

		// packet starts from 0x051c, reading third byte
		// TASK: Write the address to read from the memory for byte 3 of the report descriptor to HPI_ADDR.
		IOWR(CY7C67200_BASE,HPI_ADDR,0x051f);
 8000d38:	00c147c4 	movi	r3,1311
 8000d3c:	00840034 	movhi	r2,4096
 8000d40:	10800204 	addi	r2,r2,8
 8000d44:	10c00035 	stwio	r3,0(r2)
		keycode = IORD(CY7C67200_BASE,HPI_DATA);
 8000d48:	00840034 	movhi	r2,4096
 8000d4c:	10800037 	ldwio	r2,0(r2)
 8000d50:	e0bffd15 	stw	r2,-12(fp)
		printf("\nfirst two keycode values are %04x\n",keycode);
 8000d54:	01020074 	movhi	r4,2049
 8000d58:	21398004 	addi	r4,r4,-6656
 8000d5c:	e17ffd17 	ldw	r5,-12(fp)
 8000d60:	80020900 	call	8002090 <printf>
		IOWR(KEYCODE_BASE, 0, keycode & 0xff);
 8000d64:	e0bffd17 	ldw	r2,-12(fp)
 8000d68:	10c03fcc 	andi	r3,r2,255
 8000d6c:	00844034 	movhi	r2,4352
 8000d70:	10840804 	addi	r2,r2,4128
 8000d74:	10c00035 	stwio	r3,0(r2)
		usleep(5*1000);
 8000d78:	0104e204 	movi	r4,5000
 8000d7c:	800bfc80 	call	800bfc8 <usleep>
		//USB hot plug routine
		usb_ctl_val = UsbRead(ctl_reg);
 8000d80:	d0a6a50b 	ldhu	r2,-25964(gp)
 8000d84:	10bfffcc 	andi	r2,r2,65535
 8000d88:	1009883a 	mov	r4,r2
 8000d8c:	8000f440 	call	8000f44 <UsbRead>
 8000d90:	e0bffb0d 	sth	r2,-20(fp)
		usleep(5*1000);
 8000d94:	0104e204 	movi	r4,5000
 8000d98:	800bfc80 	call	800bfc8 <usleep>
		usb_ctl_val = UsbRead(ctl_reg);
 8000d9c:	d0a6a50b 	ldhu	r2,-25964(gp)
 8000da0:	10bfffcc 	andi	r2,r2,65535
 8000da4:	1009883a 	mov	r4,r2
 8000da8:	8000f440 	call	8000f44 <UsbRead>
 8000dac:	e0bffb0d 	sth	r2,-20(fp)
		usleep(5*1000);
 8000db0:	0104e204 	movi	r4,5000
 8000db4:	800bfc80 	call	800bfc8 <usleep>
		usb_ctl_val = UsbRead(ctl_reg);
 8000db8:	d0a6a50b 	ldhu	r2,-25964(gp)
 8000dbc:	10bfffcc 	andi	r2,r2,65535
 8000dc0:	1009883a 	mov	r4,r2
 8000dc4:	8000f440 	call	8000f44 <UsbRead>
 8000dc8:	e0bffb0d 	sth	r2,-20(fp)
		usleep(5*1000);
 8000dcc:	0104e204 	movi	r4,5000
 8000dd0:	800bfc80 	call	800bfc8 <usleep>
		usb_ctl_val = UsbRead(ctl_reg);
 8000dd4:	d0a6a50b 	ldhu	r2,-25964(gp)
 8000dd8:	10bfffcc 	andi	r2,r2,65535
 8000ddc:	1009883a 	mov	r4,r2
 8000de0:	8000f440 	call	8000f44 <UsbRead>
 8000de4:	e0bffb0d 	sth	r2,-20(fp)
		usleep(5*1000);
 8000de8:	0104e204 	movi	r4,5000
 8000dec:	800bfc80 	call	800bfc8 <usleep>
		usb_ctl_val = UsbRead(ctl_reg);
 8000df0:	d0a6a50b 	ldhu	r2,-25964(gp)
 8000df4:	10bfffcc 	andi	r2,r2,65535
 8000df8:	1009883a 	mov	r4,r2
 8000dfc:	8000f440 	call	8000f44 <UsbRead>
 8000e00:	e0bffb0d 	sth	r2,-20(fp)
		usleep(5*1000);
 8000e04:	0104e204 	movi	r4,5000
 8000e08:	800bfc80 	call	800bfc8 <usleep>
		usb_ctl_val = UsbRead(ctl_reg);
 8000e0c:	d0a6a50b 	ldhu	r2,-25964(gp)
 8000e10:	10bfffcc 	andi	r2,r2,65535
 8000e14:	1009883a 	mov	r4,r2
 8000e18:	8000f440 	call	8000f44 <UsbRead>
 8000e1c:	e0bffb0d 	sth	r2,-20(fp)
		usleep(5*1000);
 8000e20:	0104e204 	movi	r4,5000
 8000e24:	800bfc80 	call	800bfc8 <usleep>

		if(!(usb_ctl_val & no_device))
 8000e28:	d0a6a58b 	ldhu	r2,-25962(gp)
 8000e2c:	e0fffb0b 	ldhu	r3,-20(fp)
 8000e30:	1884703a 	and	r2,r3,r2
 8000e34:	10bfffcc 	andi	r2,r2,65535
 8000e38:	1000061e 	bne	r2,zero,8000e54 <main+0xc60>
		{
			printf("\n[INFO]: the keyboard has been removed!!! \n");
 8000e3c:	01020074 	movhi	r4,2049
 8000e40:	21398904 	addi	r4,r4,-6620
 8000e44:	80021500 	call	8002150 <puts>
			printf("[INFO]: please insert again!!! \n");
 8000e48:	01020074 	movhi	r4,2049
 8000e4c:	21399404 	addi	r4,r4,-6576
 8000e50:	80021500 	call	8002150 <puts>
		};
		usleep(5000);
 8000e54:	0104e204 	movi	r4,5000
 8000e58:	800bfc80 	call	800bfc8 <usleep>
		usb_ctl_val = UsbRead(ctl_reg);
 8000e5c:	d0a6a50b 	ldhu	r2,-25964(gp)
 8000e60:	10bfffcc 	andi	r2,r2,65535
 8000e64:	1009883a 	mov	r4,r2
 8000e68:	8000f440 	call	8000f44 <UsbRead>
 8000e6c:	e0bffb0d 	sth	r2,-20(fp)
		while (!(usb_ctl_val & no_device))
 8000e70:	00001c06 	br	8000ee4 <main+0xcf0>
		{

			usb_ctl_val = UsbRead(ctl_reg);
 8000e74:	d0a6a50b 	ldhu	r2,-25964(gp)
 8000e78:	10bfffcc 	andi	r2,r2,65535
 8000e7c:	1009883a 	mov	r4,r2
 8000e80:	8000f440 	call	8000f44 <UsbRead>
 8000e84:	e0bffb0d 	sth	r2,-20(fp)
			usleep(5*1000);
 8000e88:	0104e204 	movi	r4,5000
 8000e8c:	800bfc80 	call	800bfc8 <usleep>
			usb_ctl_val = UsbRead(ctl_reg);
 8000e90:	d0a6a50b 	ldhu	r2,-25964(gp)
 8000e94:	10bfffcc 	andi	r2,r2,65535
 8000e98:	1009883a 	mov	r4,r2
 8000e9c:	8000f440 	call	8000f44 <UsbRead>
 8000ea0:	e0bffb0d 	sth	r2,-20(fp)
			usleep(5*1000);
 8000ea4:	0104e204 	movi	r4,5000
 8000ea8:	800bfc80 	call	800bfc8 <usleep>
			usb_ctl_val = UsbRead(ctl_reg);
 8000eac:	d0a6a50b 	ldhu	r2,-25964(gp)
 8000eb0:	10bfffcc 	andi	r2,r2,65535
 8000eb4:	1009883a 	mov	r4,r2
 8000eb8:	8000f440 	call	8000f44 <UsbRead>
 8000ebc:	e0bffb0d 	sth	r2,-20(fp)
			usleep(5*1000);
 8000ec0:	0104e204 	movi	r4,5000
 8000ec4:	800bfc80 	call	800bfc8 <usleep>

			if(usb_ctl_val & no_device)
 8000ec8:	d0a6a58b 	ldhu	r2,-25962(gp)
 8000ecc:	e0fffb0b 	ldhu	r3,-20(fp)
 8000ed0:	1884703a 	and	r2,r3,r2
 8000ed4:	10bfffcc 	andi	r2,r2,65535
 8000ed8:	103cd31e 	bne	r2,zero,8000228 <__alt_data_end+0xf8000228>
				goto USB_HOT_PLUG;

			usleep(200);
 8000edc:	01003204 	movi	r4,200
 8000ee0:	800bfc80 	call	800bfc8 <usleep>
			printf("\n[INFO]: the keyboard has been removed!!! \n");
			printf("[INFO]: please insert again!!! \n");
		};
		usleep(5000);
		usb_ctl_val = UsbRead(ctl_reg);
		while (!(usb_ctl_val & no_device))
 8000ee4:	d0a6a58b 	ldhu	r2,-25962(gp)
 8000ee8:	e0fffb0b 	ldhu	r3,-20(fp)
 8000eec:	1884703a 	and	r2,r3,r2
 8000ef0:	10bfffcc 	andi	r2,r2,65535
 8000ef4:	103fdf26 	beq	r2,zero,8000e74 <__alt_data_end+0xf8000e74>

			usleep(200);

		}

	}//end while
 8000ef8:	003f3e06 	br	8000bf4 <__alt_data_end+0xf8000bf4>

08000efc <UsbWrite>:
 *
 * @note     None
 *
 ******************************************************************************/
void UsbWrite(alt_u16 Address, alt_u16 Data)
{
 8000efc:	defffd04 	addi	sp,sp,-12
 8000f00:	df000215 	stw	fp,8(sp)
 8000f04:	df000204 	addi	fp,sp,8
 8000f08:	2007883a 	mov	r3,r4
 8000f0c:	2805883a 	mov	r2,r5
 8000f10:	e0fffe0d 	sth	r3,-8(fp)
 8000f14:	e0bfff0d 	sth	r2,-4(fp)
	//XIo_Out16(USB_ADDRESS, Address);
	//specify memory location
	IOWR(CY7C67200_BASE,HPI_ADDR,Address);//write Address to HPI_ADDR register
 8000f18:	e0fffe0b 	ldhu	r3,-8(fp)
 8000f1c:	00840034 	movhi	r2,4096
 8000f20:	10800204 	addi	r2,r2,8
 8000f24:	10c00035 	stwio	r3,0(r2)
	//usleep(10);

	//XIo_Out16(USB_DATA, Data);
	//write
	IOWR(CY7C67200_BASE,HPI_DATA,Data);//write data to memory(HPI_DATA register)
 8000f28:	e0ffff0b 	ldhu	r3,-4(fp)
 8000f2c:	00840034 	movhi	r2,4096
 8000f30:	10c00035 	stwio	r3,0(r2)
}
 8000f34:	e037883a 	mov	sp,fp
 8000f38:	df000017 	ldw	fp,0(sp)
 8000f3c:	dec00104 	addi	sp,sp,4
 8000f40:	f800283a 	ret

08000f44 <UsbRead>:
 *
 * @note     None
 *
 ******************************************************************************/
alt_u16 UsbRead(alt_u16 Address)
{
 8000f44:	defffe04 	addi	sp,sp,-8
 8000f48:	df000115 	stw	fp,4(sp)
 8000f4c:	df000104 	addi	fp,sp,4
 8000f50:	2005883a 	mov	r2,r4
 8000f54:	e0bfff0d 	sth	r2,-4(fp)
	//XIo_Out16(HPI_ADDR, Address);
	//specify memory location
	IOWR(CY7C67200_BASE,HPI_ADDR,Address);//write Address to HPI_ADDR register
 8000f58:	e0ffff0b 	ldhu	r3,-4(fp)
 8000f5c:	00840034 	movhi	r2,4096
 8000f60:	10800204 	addi	r2,r2,8
 8000f64:	10c00035 	stwio	r3,0(r2)
	//usleep(20);
	//read
	return IORD(CY7C67200_BASE,HPI_DATA);//read data from memory(HPI_DATA register)
 8000f68:	00840034 	movhi	r2,4096
 8000f6c:	10800037 	ldwio	r2,0(r2)
}
 8000f70:	e037883a 	mov	sp,fp
 8000f74:	df000017 	ldw	fp,0(sp)
 8000f78:	dec00104 	addi	sp,sp,4
 8000f7c:	f800283a 	ret

08000f80 <UsbSoftReset>:
 *
 * @note     None
 *
 ******************************************************************************/
void UsbSoftReset()
{
 8000f80:	defffe04 	addi	sp,sp,-8
 8000f84:	dfc00115 	stw	ra,4(sp)
 8000f88:	df000015 	stw	fp,0(sp)
 8000f8c:	d839883a 	mov	fp,sp
	//XIo_Out16(USB_MAILBOX, COMM_RESET);
	//Send RESET request to HPI_MAILBOX register
	IOWR(CY7C67200_BASE,HPI_MAILBOX,COMM_RESET); //COMM_JUMP2CODE
 8000f90:	00fe9414 	movui	r3,64080
 8000f94:	00840034 	movhi	r2,4096
 8000f98:	10800104 	addi	r2,r2,4
 8000f9c:	10c00035 	stwio	r3,0(r2)
	usleep(100000);
 8000fa0:	010000b4 	movhi	r4,2
 8000fa4:	2121a804 	addi	r4,r4,-31072
 8000fa8:	800bfc80 	call	800bfc8 <usleep>
	printf("[USB INIT]:reset finished!\n");
 8000fac:	01020074 	movhi	r4,2049
 8000fb0:	21399c04 	addi	r4,r4,-6544
 8000fb4:	80021500 	call	8002150 <puts>

	usleep(500000);
 8000fb8:	01000234 	movhi	r4,8
 8000fbc:	21284804 	addi	r4,r4,-24288
 8000fc0:	800bfc80 	call	800bfc8 <usleep>
	printf("[USB INIT]:Clear up the interrupt\r\n");
 8000fc4:	01020074 	movhi	r4,2049
 8000fc8:	2139a304 	addi	r4,r4,-6516
 8000fcc:	80021500 	call	8002150 <puts>
	IORD(CY7C67200_BASE,HPI_MAILBOX);
 8000fd0:	00840034 	movhi	r2,4096
 8000fd4:	10800104 	addi	r2,r2,4
 8000fd8:	10800037 	ldwio	r2,0(r2)
	IORD(CY7C67200_BASE,HPI_STATUS);
 8000fdc:	00840034 	movhi	r2,4096
 8000fe0:	10800304 	addi	r2,r2,12
 8000fe4:	10800037 	ldwio	r2,0(r2)

	// Had to add the write due to a bug in BIOS where they overwrite
	// the mailbox after initialization with garbage.  The read clears
	// any pending interrupts.
	UsbRead (HPI_SIE1_MSG_ADR);
 8000fe8:	01005104 	movi	r4,324
 8000fec:	8000f440 	call	8000f44 <UsbRead>
	UsbWrite (HPI_SIE1_MSG_ADR, 0);
 8000ff0:	01005104 	movi	r4,324
 8000ff4:	000b883a 	mov	r5,zero
 8000ff8:	8000efc0 	call	8000efc <UsbWrite>
	UsbRead (HPI_SIE2_MSG_ADR);
 8000ffc:	01005204 	movi	r4,328
 8001000:	8000f440 	call	8000f44 <UsbRead>
	UsbWrite (HPI_SIE2_MSG_ADR, 0);
 8001004:	01005204 	movi	r4,328
 8001008:	000b883a 	mov	r5,zero
 800100c:	8000efc0 	call	8000efc <UsbWrite>

	UsbWrite (HOST1_STAT_REG, 0xFFFF);
 8001010:	01302414 	movui	r4,49296
 8001014:	017fffd4 	movui	r5,65535
 8001018:	8000efc0 	call	8000efc <UsbWrite>
	UsbWrite (HOST2_STAT_REG, 0xFFFF);
 800101c:	01302c14 	movui	r4,49328
 8001020:	017fffd4 	movui	r5,65535
 8001024:	8000efc0 	call	8000efc <UsbWrite>
}
 8001028:	e037883a 	mov	sp,fp
 800102c:	dfc00117 	ldw	ra,4(sp)
 8001030:	df000017 	ldw	fp,0(sp)
 8001034:	dec00204 	addi	sp,sp,8
 8001038:	f800283a 	ret

0800103c <UsbSetAddress>:


void UsbSetAddress()
{
 800103c:	defffe04 	addi	sp,sp,-8
 8001040:	dfc00115 	stw	ra,4(sp)
 8001044:	df000015 	stw	fp,0(sp)
 8001048:	d839883a 	mov	fp,sp
	//refer to https://wiki.cites.illinois.edu/wiki/download/attachments/510868487/AN6010.pdf?version=1&modificationDate=1413260412000&api=v2
	//the starting address
	IOWR(CY7C67200_BASE,HPI_ADDR,0x0500); //the start address:0x00-01
 800104c:	00c14004 	movi	r3,1280
 8001050:	00840034 	movhi	r2,4096
 8001054:	10800204 	addi	r2,r2,8
 8001058:	10c00035 	stwio	r3,0(r2)
	// TD #1(SET ADDRESS Tdesc): 6 writes, this is continuous writes, writes data in consecutive memory locations.
	// TASK: Complete with 4 more IOWR functions
	IOWR(CY7C67200_BASE,HPI_DATA,0x050C);//base address of data buffer:0x02-03
 800105c:	00c14304 	movi	r3,1292
 8001060:	00840034 	movhi	r2,4096
 8001064:	10c00035 	stwio	r3,0(r2)
	IOWR(CY7C67200_BASE,HPI_DATA,0x0008); //4 port number
 8001068:	00c00204 	movi	r3,8
 800106c:	00840034 	movhi	r2,4096
 8001070:	10c00035 	stwio	r3,0(r2)
	IOWR(CY7C67200_BASE,HPI_DATA,0x00D0);
 8001074:	00c03404 	movi	r3,208
 8001078:	00840034 	movhi	r2,4096
 800107c:	10c00035 	stwio	r3,0(r2)
	IOWR(CY7C67200_BASE,HPI_DATA,0x0001);
 8001080:	00c00044 	movi	r3,1
 8001084:	00840034 	movhi	r2,4096
 8001088:	10c00035 	stwio	r3,0(r2)
	IOWR(CY7C67200_BASE,HPI_DATA,0x0013);
 800108c:	00c004c4 	movi	r3,19
 8001090:	00840034 	movhi	r2,4096
 8001094:	10c00035 	stwio	r3,0(r2)
	IOWR(CY7C67200_BASE,HPI_DATA,0x0514);
 8001098:	00c14504 	movi	r3,1300
 800109c:	00840034 	movhi	r2,4096
 80010a0:	10c00035 	stwio	r3,0(r2)

	// TD #2(SET ADDRESS Tdata): 4 writes
	// TASK: Complete with 4 IOWR functions
	IOWR(CY7C67200_BASE,HPI_DATA,0x0500);
 80010a4:	00c14004 	movi	r3,1280
 80010a8:	00840034 	movhi	r2,4096
 80010ac:	10c00035 	stwio	r3,0(r2)
	IOWR(CY7C67200_BASE,HPI_DATA,0x0002);
 80010b0:	00c00084 	movi	r3,2
 80010b4:	00840034 	movhi	r2,4096
 80010b8:	10c00035 	stwio	r3,0(r2)
	IOWR(CY7C67200_BASE,HPI_DATA,0x0000);
 80010bc:	0007883a 	mov	r3,zero
 80010c0:	00840034 	movhi	r2,4096
 80010c4:	10c00035 	stwio	r3,0(r2)
	IOWR(CY7C67200_BASE,HPI_DATA,0x0000);
 80010c8:	0007883a 	mov	r3,zero
 80010cc:	00840034 	movhi	r2,4096
 80010d0:	10c00035 	stwio	r3,0(r2)

	// TD #3(SET ADDRESS Status Phase Tdesc): 6 writes
	// TASK: Complete with 6 IOWR functions
	IOWR(CY7C67200_BASE,HPI_DATA,0x0000);
 80010d4:	0007883a 	mov	r3,zero
 80010d8:	00840034 	movhi	r2,4096
 80010dc:	10c00035 	stwio	r3,0(r2)
	IOWR(CY7C67200_BASE,HPI_DATA,0x0000);
 80010e0:	0007883a 	mov	r3,zero
 80010e4:	00840034 	movhi	r2,4096
 80010e8:	10c00035 	stwio	r3,0(r2)
	IOWR(CY7C67200_BASE,HPI_DATA,0x0090);
 80010ec:	00c02404 	movi	r3,144
 80010f0:	00840034 	movhi	r2,4096
 80010f4:	10c00035 	stwio	r3,0(r2)
	IOWR(CY7C67200_BASE,HPI_DATA,0x0041);
 80010f8:	00c01044 	movi	r3,65
 80010fc:	00840034 	movhi	r2,4096
 8001100:	10c00035 	stwio	r3,0(r2)
	IOWR(CY7C67200_BASE,HPI_DATA,0x0013);
 8001104:	00c004c4 	movi	r3,19
 8001108:	00840034 	movhi	r2,4096
 800110c:	10c00035 	stwio	r3,0(r2)
	IOWR(CY7C67200_BASE,HPI_DATA,0x0000);
 8001110:	0007883a 	mov	r3,zero
 8001114:	00840034 	movhi	r2,4096
 8001118:	10c00035 	stwio	r3,0(r2)

	UsbWrite(HUSB_SIE1_pCurrentTDPtr,0x0500); //HUSB_SIE1_pCurrentTDPtr
 800111c:	01006c04 	movi	r4,432
 8001120:	01414004 	movi	r5,1280
 8001124:	8000efc0 	call	8000efc <UsbWrite>
}
 8001128:	e037883a 	mov	sp,fp
 800112c:	dfc00117 	ldw	ra,4(sp)
 8001130:	df000017 	ldw	fp,0(sp)
 8001134:	dec00204 	addi	sp,sp,8
 8001138:	f800283a 	ret

0800113c <UsbGetDeviceDesc1>:


void UsbGetDeviceDesc1()
{
 800113c:	defffe04 	addi	sp,sp,-8
 8001140:	dfc00115 	stw	ra,4(sp)
 8001144:	df000015 	stw	fp,0(sp)
 8001148:	d839883a 	mov	fp,sp
	//the starting address
	IOWR(CY7C67200_BASE,HPI_ADDR,0x0500); //the start address
 800114c:	00c14004 	movi	r3,1280
 8001150:	00840034 	movhi	r2,4096
 8001154:	10800204 	addi	r2,r2,8
 8001158:	10c00035 	stwio	r3,0(r2)
	IOWR(CY7C67200_BASE,HPI_DATA,0x050C);
 800115c:	00c14304 	movi	r3,1292
 8001160:	00840034 	movhi	r2,4096
 8001164:	10c00035 	stwio	r3,0(r2)
	IOWR(CY7C67200_BASE,HPI_DATA,0x0008); //4 port number
 8001168:	00c00204 	movi	r3,8
 800116c:	00840034 	movhi	r2,4096
 8001170:	10c00035 	stwio	r3,0(r2)
	IOWR(CY7C67200_BASE,HPI_DATA,0x02D0); //device address
 8001174:	00c0b404 	movi	r3,720
 8001178:	00840034 	movhi	r2,4096
 800117c:	10c00035 	stwio	r3,0(r2)
	IOWR(CY7C67200_BASE,HPI_DATA,0x0001);
 8001180:	00c00044 	movi	r3,1
 8001184:	00840034 	movhi	r2,4096
 8001188:	10c00035 	stwio	r3,0(r2)
	IOWR(CY7C67200_BASE,HPI_DATA,0x0013);
 800118c:	00c004c4 	movi	r3,19
 8001190:	00840034 	movhi	r2,4096
 8001194:	10c00035 	stwio	r3,0(r2)
	IOWR(CY7C67200_BASE,HPI_DATA,0x0514);
 8001198:	00c14504 	movi	r3,1300
 800119c:	00840034 	movhi	r2,4096
 80011a0:	10c00035 	stwio	r3,0(r2)

	//td content 4 bytes
	IOWR(CY7C67200_BASE,HPI_DATA,0x0680);//c
 80011a4:	00c1a004 	movi	r3,1664
 80011a8:	00840034 	movhi	r2,4096
 80011ac:	10c00035 	stwio	r3,0(r2)
	IOWR(CY7C67200_BASE,HPI_DATA,0x0100); //device 0x01
 80011b0:	00c04004 	movi	r3,256
 80011b4:	00840034 	movhi	r2,4096
 80011b8:	10c00035 	stwio	r3,0(r2)
	IOWR(CY7C67200_BASE,HPI_DATA,0x0000);
 80011bc:	0007883a 	mov	r3,zero
 80011c0:	00840034 	movhi	r2,4096
 80011c4:	10c00035 	stwio	r3,0(r2)
	IOWR(CY7C67200_BASE,HPI_DATA,0x0008);
 80011c8:	00c00204 	movi	r3,8
 80011cc:	00840034 	movhi	r2,4096
 80011d0:	10c00035 	stwio	r3,0(r2)

	//data phase IN
	IOWR(CY7C67200_BASE,HPI_DATA,0x052C); //
 80011d4:	00c14b04 	movi	r3,1324
 80011d8:	00840034 	movhi	r2,4096
 80011dc:	10c00035 	stwio	r3,0(r2)
	IOWR(CY7C67200_BASE,HPI_DATA,0x0008);//
 80011e0:	00c00204 	movi	r3,8
 80011e4:	00840034 	movhi	r2,4096
 80011e8:	10c00035 	stwio	r3,0(r2)
	IOWR(CY7C67200_BASE,HPI_DATA,0x0290);//
 80011ec:	00c0a404 	movi	r3,656
 80011f0:	00840034 	movhi	r2,4096
 80011f4:	10c00035 	stwio	r3,0(r2)
	IOWR(CY7C67200_BASE,HPI_DATA,0x0041);
 80011f8:	00c01044 	movi	r3,65
 80011fc:	00840034 	movhi	r2,4096
 8001200:	10c00035 	stwio	r3,0(r2)
	IOWR(CY7C67200_BASE,HPI_DATA,0x0013);
 8001204:	00c004c4 	movi	r3,19
 8001208:	00840034 	movhi	r2,4096
 800120c:	10c00035 	stwio	r3,0(r2)
	IOWR(CY7C67200_BASE,HPI_DATA,0x0520);
 8001210:	00c14804 	movi	r3,1312
 8001214:	00840034 	movhi	r2,4096
 8001218:	10c00035 	stwio	r3,0(r2)

	//    //status phase
	IOWR(CY7C67200_BASE,HPI_DATA,0x0000); //don't care
 800121c:	0007883a 	mov	r3,zero
 8001220:	00840034 	movhi	r2,4096
 8001224:	10c00035 	stwio	r3,0(r2)
	IOWR(CY7C67200_BASE,HPI_DATA,0x0000);//port number
 8001228:	0007883a 	mov	r3,zero
 800122c:	00840034 	movhi	r2,4096
 8001230:	10c00035 	stwio	r3,0(r2)
	IOWR(CY7C67200_BASE,HPI_DATA,0x0210);//device address
 8001234:	00c08404 	movi	r3,528
 8001238:	00840034 	movhi	r2,4096
 800123c:	10c00035 	stwio	r3,0(r2)
	IOWR(CY7C67200_BASE,HPI_DATA,0x0041);
 8001240:	00c01044 	movi	r3,65
 8001244:	00840034 	movhi	r2,4096
 8001248:	10c00035 	stwio	r3,0(r2)
	IOWR(CY7C67200_BASE,HPI_DATA,0x0013);
 800124c:	00c004c4 	movi	r3,19
 8001250:	00840034 	movhi	r2,4096
 8001254:	10c00035 	stwio	r3,0(r2)
	IOWR(CY7C67200_BASE,HPI_DATA,0x0000);
 8001258:	0007883a 	mov	r3,zero
 800125c:	00840034 	movhi	r2,4096
 8001260:	10c00035 	stwio	r3,0(r2)

	UsbWrite(HUSB_SIE1_pCurrentTDPtr,0x0500); //HUSB_SIE1_pCurrentTDPtr
 8001264:	01006c04 	movi	r4,432
 8001268:	01414004 	movi	r5,1280
 800126c:	8000efc0 	call	8000efc <UsbWrite>
}
 8001270:	e037883a 	mov	sp,fp
 8001274:	dfc00117 	ldw	ra,4(sp)
 8001278:	df000017 	ldw	fp,0(sp)
 800127c:	dec00204 	addi	sp,sp,8
 8001280:	f800283a 	ret

08001284 <UsbGetDeviceDesc2>:

void UsbGetDeviceDesc2()
{
 8001284:	defffe04 	addi	sp,sp,-8
 8001288:	dfc00115 	stw	ra,4(sp)
 800128c:	df000015 	stw	fp,0(sp)
 8001290:	d839883a 	mov	fp,sp
	//the starting address
	IOWR(CY7C67200_BASE,HPI_ADDR,0x0500); //the start address
 8001294:	00c14004 	movi	r3,1280
 8001298:	00840034 	movhi	r2,4096
 800129c:	10800204 	addi	r2,r2,8
 80012a0:	10c00035 	stwio	r3,0(r2)
	IOWR(CY7C67200_BASE,HPI_DATA,0x050C);
 80012a4:	00c14304 	movi	r3,1292
 80012a8:	00840034 	movhi	r2,4096
 80012ac:	10c00035 	stwio	r3,0(r2)
	IOWR(CY7C67200_BASE,HPI_DATA,0x0008); //4 port number
 80012b0:	00c00204 	movi	r3,8
 80012b4:	00840034 	movhi	r2,4096
 80012b8:	10c00035 	stwio	r3,0(r2)
	IOWR(CY7C67200_BASE,HPI_DATA,0x02D0); //device address
 80012bc:	00c0b404 	movi	r3,720
 80012c0:	00840034 	movhi	r2,4096
 80012c4:	10c00035 	stwio	r3,0(r2)
	IOWR(CY7C67200_BASE,HPI_DATA,0x0001);
 80012c8:	00c00044 	movi	r3,1
 80012cc:	00840034 	movhi	r2,4096
 80012d0:	10c00035 	stwio	r3,0(r2)
	IOWR(CY7C67200_BASE,HPI_DATA,0x0013);
 80012d4:	00c004c4 	movi	r3,19
 80012d8:	00840034 	movhi	r2,4096
 80012dc:	10c00035 	stwio	r3,0(r2)
	IOWR(CY7C67200_BASE,HPI_DATA,0x0514);
 80012e0:	00c14504 	movi	r3,1300
 80012e4:	00840034 	movhi	r2,4096
 80012e8:	10c00035 	stwio	r3,0(r2)

	//td content 4 bytes
	IOWR(CY7C67200_BASE,HPI_DATA,0x0680);//c
 80012ec:	00c1a004 	movi	r3,1664
 80012f0:	00840034 	movhi	r2,4096
 80012f4:	10c00035 	stwio	r3,0(r2)
	IOWR(CY7C67200_BASE,HPI_DATA,0x0100);//e //device 0x01
 80012f8:	00c04004 	movi	r3,256
 80012fc:	00840034 	movhi	r2,4096
 8001300:	10c00035 	stwio	r3,0(r2)
	IOWR(CY7C67200_BASE,HPI_DATA,0x0000);//0
 8001304:	0007883a 	mov	r3,zero
 8001308:	00840034 	movhi	r2,4096
 800130c:	10c00035 	stwio	r3,0(r2)
	IOWR(CY7C67200_BASE,HPI_DATA,0x0012);//2
 8001310:	00c00484 	movi	r3,18
 8001314:	00840034 	movhi	r2,4096
 8001318:	10c00035 	stwio	r3,0(r2)

	//data phase IN-1
	IOWR(CY7C67200_BASE,HPI_DATA,0x0544); //514
 800131c:	00c15104 	movi	r3,1348
 8001320:	00840034 	movhi	r2,4096
 8001324:	10c00035 	stwio	r3,0(r2)
	IOWR(CY7C67200_BASE,HPI_DATA,0x0008);//6
 8001328:	00c00204 	movi	r3,8
 800132c:	00840034 	movhi	r2,4096
 8001330:	10c00035 	stwio	r3,0(r2)
	IOWR(CY7C67200_BASE,HPI_DATA,0x0290);//8
 8001334:	00c0a404 	movi	r3,656
 8001338:	00840034 	movhi	r2,4096
 800133c:	10c00035 	stwio	r3,0(r2)
	IOWR(CY7C67200_BASE,HPI_DATA,0x0041);//a
 8001340:	00c01044 	movi	r3,65
 8001344:	00840034 	movhi	r2,4096
 8001348:	10c00035 	stwio	r3,0(r2)
	IOWR(CY7C67200_BASE,HPI_DATA,0x0013);//c
 800134c:	00c004c4 	movi	r3,19
 8001350:	00840034 	movhi	r2,4096
 8001354:	10c00035 	stwio	r3,0(r2)
	IOWR(CY7C67200_BASE,HPI_DATA,0x0520);//e
 8001358:	00c14804 	movi	r3,1312
 800135c:	00840034 	movhi	r2,4096
 8001360:	10c00035 	stwio	r3,0(r2)

	//data phase IN-2
	IOWR(CY7C67200_BASE,HPI_DATA,0x054c); //520
 8001364:	00c15304 	movi	r3,1356
 8001368:	00840034 	movhi	r2,4096
 800136c:	10c00035 	stwio	r3,0(r2)
	IOWR(CY7C67200_BASE,HPI_DATA,0x0008);//2
 8001370:	00c00204 	movi	r3,8
 8001374:	00840034 	movhi	r2,4096
 8001378:	10c00035 	stwio	r3,0(r2)
	IOWR(CY7C67200_BASE,HPI_DATA,0x0290);//4
 800137c:	00c0a404 	movi	r3,656
 8001380:	00840034 	movhi	r2,4096
 8001384:	10c00035 	stwio	r3,0(r2)
	IOWR(CY7C67200_BASE,HPI_DATA,0x0001);//6
 8001388:	00c00044 	movi	r3,1
 800138c:	00840034 	movhi	r2,4096
 8001390:	10c00035 	stwio	r3,0(r2)
	IOWR(CY7C67200_BASE,HPI_DATA,0x0013);//8
 8001394:	00c004c4 	movi	r3,19
 8001398:	00840034 	movhi	r2,4096
 800139c:	10c00035 	stwio	r3,0(r2)
	IOWR(CY7C67200_BASE,HPI_DATA,0x052c);//a
 80013a0:	00c14b04 	movi	r3,1324
 80013a4:	00840034 	movhi	r2,4096
 80013a8:	10c00035 	stwio	r3,0(r2)

	//data phase IN-3
	IOWR(CY7C67200_BASE,HPI_DATA,0x0554); //c
 80013ac:	00c15504 	movi	r3,1364
 80013b0:	00840034 	movhi	r2,4096
 80013b4:	10c00035 	stwio	r3,0(r2)
	IOWR(CY7C67200_BASE,HPI_DATA,0x0002);//e
 80013b8:	00c00084 	movi	r3,2
 80013bc:	00840034 	movhi	r2,4096
 80013c0:	10c00035 	stwio	r3,0(r2)
	IOWR(CY7C67200_BASE,HPI_DATA,0x0290);//530
 80013c4:	00c0a404 	movi	r3,656
 80013c8:	00840034 	movhi	r2,4096
 80013cc:	10c00035 	stwio	r3,0(r2)
	IOWR(CY7C67200_BASE,HPI_DATA,0x0041);//2
 80013d0:	00c01044 	movi	r3,65
 80013d4:	00840034 	movhi	r2,4096
 80013d8:	10c00035 	stwio	r3,0(r2)
	IOWR(CY7C67200_BASE,HPI_DATA,0x0013);//4
 80013dc:	00c004c4 	movi	r3,19
 80013e0:	00840034 	movhi	r2,4096
 80013e4:	10c00035 	stwio	r3,0(r2)
	IOWR(CY7C67200_BASE,HPI_DATA,0x0538);//6
 80013e8:	00c14e04 	movi	r3,1336
 80013ec:	00840034 	movhi	r2,4096
 80013f0:	10c00035 	stwio	r3,0(r2)

	//status phase
	IOWR(CY7C67200_BASE,HPI_DATA,0x0000); //538
 80013f4:	0007883a 	mov	r3,zero
 80013f8:	00840034 	movhi	r2,4096
 80013fc:	10c00035 	stwio	r3,0(r2)
	IOWR(CY7C67200_BASE,HPI_DATA,0x0000);//a
 8001400:	0007883a 	mov	r3,zero
 8001404:	00840034 	movhi	r2,4096
 8001408:	10c00035 	stwio	r3,0(r2)
	IOWR(CY7C67200_BASE,HPI_DATA,0x0210);//c
 800140c:	00c08404 	movi	r3,528
 8001410:	00840034 	movhi	r2,4096
 8001414:	10c00035 	stwio	r3,0(r2)
	IOWR(CY7C67200_BASE,HPI_DATA,0x0041);//e
 8001418:	00c01044 	movi	r3,65
 800141c:	00840034 	movhi	r2,4096
 8001420:	10c00035 	stwio	r3,0(r2)
	IOWR(CY7C67200_BASE,HPI_DATA,0x0013);//540
 8001424:	00c004c4 	movi	r3,19
 8001428:	00840034 	movhi	r2,4096
 800142c:	10c00035 	stwio	r3,0(r2)
	IOWR(CY7C67200_BASE,HPI_DATA,0x0000);//2
 8001430:	0007883a 	mov	r3,zero
 8001434:	00840034 	movhi	r2,4096
 8001438:	10c00035 	stwio	r3,0(r2)

	UsbWrite(HUSB_SIE1_pCurrentTDPtr,0x0500); //HUSB_SIE1_pCurrentTDPtr
 800143c:	01006c04 	movi	r4,432
 8001440:	01414004 	movi	r5,1280
 8001444:	8000efc0 	call	8000efc <UsbWrite>
}
 8001448:	e037883a 	mov	sp,fp
 800144c:	dfc00117 	ldw	ra,4(sp)
 8001450:	df000017 	ldw	fp,0(sp)
 8001454:	dec00204 	addi	sp,sp,8
 8001458:	f800283a 	ret

0800145c <UsbGetConfigDesc1>:


void UsbGetConfigDesc1()
{
 800145c:	defffe04 	addi	sp,sp,-8
 8001460:	dfc00115 	stw	ra,4(sp)
 8001464:	df000015 	stw	fp,0(sp)
 8001468:	d839883a 	mov	fp,sp
	//the starting address
	IOWR(CY7C67200_BASE,HPI_ADDR,0x0500); //the start address
 800146c:	00c14004 	movi	r3,1280
 8001470:	00840034 	movhi	r2,4096
 8001474:	10800204 	addi	r2,r2,8
 8001478:	10c00035 	stwio	r3,0(r2)
	IOWR(CY7C67200_BASE,HPI_DATA,0x050C);
 800147c:	00c14304 	movi	r3,1292
 8001480:	00840034 	movhi	r2,4096
 8001484:	10c00035 	stwio	r3,0(r2)
	IOWR(CY7C67200_BASE,HPI_DATA,0x0008); //4 port number
 8001488:	00c00204 	movi	r3,8
 800148c:	00840034 	movhi	r2,4096
 8001490:	10c00035 	stwio	r3,0(r2)
	IOWR(CY7C67200_BASE,HPI_DATA,0x02D0); //device address
 8001494:	00c0b404 	movi	r3,720
 8001498:	00840034 	movhi	r2,4096
 800149c:	10c00035 	stwio	r3,0(r2)
	IOWR(CY7C67200_BASE,HPI_DATA,0x0001);
 80014a0:	00c00044 	movi	r3,1
 80014a4:	00840034 	movhi	r2,4096
 80014a8:	10c00035 	stwio	r3,0(r2)
	IOWR(CY7C67200_BASE,HPI_DATA,0x0013);
 80014ac:	00c004c4 	movi	r3,19
 80014b0:	00840034 	movhi	r2,4096
 80014b4:	10c00035 	stwio	r3,0(r2)
	IOWR(CY7C67200_BASE,HPI_DATA,0x0514);
 80014b8:	00c14504 	movi	r3,1300
 80014bc:	00840034 	movhi	r2,4096
 80014c0:	10c00035 	stwio	r3,0(r2)

	//td content 4 bytes
	IOWR(CY7C67200_BASE,HPI_DATA,0x0680);//c
 80014c4:	00c1a004 	movi	r3,1664
 80014c8:	00840034 	movhi	r2,4096
 80014cc:	10c00035 	stwio	r3,0(r2)
	IOWR(CY7C67200_BASE,HPI_DATA,0x0200);//e //config 0x02
 80014d0:	00c08004 	movi	r3,512
 80014d4:	00840034 	movhi	r2,4096
 80014d8:	10c00035 	stwio	r3,0(r2)
	IOWR(CY7C67200_BASE,HPI_DATA,0x0000);//0
 80014dc:	0007883a 	mov	r3,zero
 80014e0:	00840034 	movhi	r2,4096
 80014e4:	10c00035 	stwio	r3,0(r2)
	IOWR(CY7C67200_BASE,HPI_DATA,0x0009);//2
 80014e8:	00c00244 	movi	r3,9
 80014ec:	00840034 	movhi	r2,4096
 80014f0:	10c00035 	stwio	r3,0(r2)

	//data phase IN-1
	IOWR(CY7C67200_BASE,HPI_DATA,0x0544); //514
 80014f4:	00c15104 	movi	r3,1348
 80014f8:	00840034 	movhi	r2,4096
 80014fc:	10c00035 	stwio	r3,0(r2)
	IOWR(CY7C67200_BASE,HPI_DATA,0x0008);//6
 8001500:	00c00204 	movi	r3,8
 8001504:	00840034 	movhi	r2,4096
 8001508:	10c00035 	stwio	r3,0(r2)
	IOWR(CY7C67200_BASE,HPI_DATA,0x0290);//8
 800150c:	00c0a404 	movi	r3,656
 8001510:	00840034 	movhi	r2,4096
 8001514:	10c00035 	stwio	r3,0(r2)
	IOWR(CY7C67200_BASE,HPI_DATA,0x0041);//a
 8001518:	00c01044 	movi	r3,65
 800151c:	00840034 	movhi	r2,4096
 8001520:	10c00035 	stwio	r3,0(r2)
	IOWR(CY7C67200_BASE,HPI_DATA,0x0013);//c
 8001524:	00c004c4 	movi	r3,19
 8001528:	00840034 	movhi	r2,4096
 800152c:	10c00035 	stwio	r3,0(r2)
	IOWR(CY7C67200_BASE,HPI_DATA,0x0520);//e
 8001530:	00c14804 	movi	r3,1312
 8001534:	00840034 	movhi	r2,4096
 8001538:	10c00035 	stwio	r3,0(r2)

	//data phase IN-2
	IOWR(CY7C67200_BASE,HPI_DATA,0x054c); //520
 800153c:	00c15304 	movi	r3,1356
 8001540:	00840034 	movhi	r2,4096
 8001544:	10c00035 	stwio	r3,0(r2)
	IOWR(CY7C67200_BASE,HPI_DATA,0x0001);//2
 8001548:	00c00044 	movi	r3,1
 800154c:	00840034 	movhi	r2,4096
 8001550:	10c00035 	stwio	r3,0(r2)
	IOWR(CY7C67200_BASE,HPI_DATA,0x0290);//4
 8001554:	00c0a404 	movi	r3,656
 8001558:	00840034 	movhi	r2,4096
 800155c:	10c00035 	stwio	r3,0(r2)
	IOWR(CY7C67200_BASE,HPI_DATA,0x0001);//6 //data0
 8001560:	00c00044 	movi	r3,1
 8001564:	00840034 	movhi	r2,4096
 8001568:	10c00035 	stwio	r3,0(r2)
	IOWR(CY7C67200_BASE,HPI_DATA,0x0013);//8
 800156c:	00c004c4 	movi	r3,19
 8001570:	00840034 	movhi	r2,4096
 8001574:	10c00035 	stwio	r3,0(r2)
	IOWR(CY7C67200_BASE,HPI_DATA,0x052c);//a
 8001578:	00c14b04 	movi	r3,1324
 800157c:	00840034 	movhi	r2,4096
 8001580:	10c00035 	stwio	r3,0(r2)

	//status phase
	IOWR(CY7C67200_BASE,HPI_DATA,0x0000); //52c
 8001584:	0007883a 	mov	r3,zero
 8001588:	00840034 	movhi	r2,4096
 800158c:	10c00035 	stwio	r3,0(r2)
	IOWR(CY7C67200_BASE,HPI_DATA,0x0000);//e
 8001590:	0007883a 	mov	r3,zero
 8001594:	00840034 	movhi	r2,4096
 8001598:	10c00035 	stwio	r3,0(r2)
	IOWR(CY7C67200_BASE,HPI_DATA,0x0210);//530
 800159c:	00c08404 	movi	r3,528
 80015a0:	00840034 	movhi	r2,4096
 80015a4:	10c00035 	stwio	r3,0(r2)
	IOWR(CY7C67200_BASE,HPI_DATA,0x0041);//2
 80015a8:	00c01044 	movi	r3,65
 80015ac:	00840034 	movhi	r2,4096
 80015b0:	10c00035 	stwio	r3,0(r2)
	IOWR(CY7C67200_BASE,HPI_DATA,0x0013);//4
 80015b4:	00c004c4 	movi	r3,19
 80015b8:	00840034 	movhi	r2,4096
 80015bc:	10c00035 	stwio	r3,0(r2)
	IOWR(CY7C67200_BASE,HPI_DATA,0x0000);//6
 80015c0:	0007883a 	mov	r3,zero
 80015c4:	00840034 	movhi	r2,4096
 80015c8:	10c00035 	stwio	r3,0(r2)

	UsbWrite(HUSB_SIE1_pCurrentTDPtr,0x0500); //HUSB_SIE1_pCurrentTDPtr
 80015cc:	01006c04 	movi	r4,432
 80015d0:	01414004 	movi	r5,1280
 80015d4:	8000efc0 	call	8000efc <UsbWrite>
}
 80015d8:	e037883a 	mov	sp,fp
 80015dc:	dfc00117 	ldw	ra,4(sp)
 80015e0:	df000017 	ldw	fp,0(sp)
 80015e4:	dec00204 	addi	sp,sp,8
 80015e8:	f800283a 	ret

080015ec <UsbGetConfigDesc2>:


void UsbGetConfigDesc2()
{
 80015ec:	defffe04 	addi	sp,sp,-8
 80015f0:	dfc00115 	stw	ra,4(sp)
 80015f4:	df000015 	stw	fp,0(sp)
 80015f8:	d839883a 	mov	fp,sp
	//the starting address
	IOWR(CY7C67200_BASE,HPI_ADDR,0x0500); //the start address
 80015fc:	00c14004 	movi	r3,1280
 8001600:	00840034 	movhi	r2,4096
 8001604:	10800204 	addi	r2,r2,8
 8001608:	10c00035 	stwio	r3,0(r2)
	IOWR(CY7C67200_BASE,HPI_DATA,0x050C);
 800160c:	00c14304 	movi	r3,1292
 8001610:	00840034 	movhi	r2,4096
 8001614:	10c00035 	stwio	r3,0(r2)
	IOWR(CY7C67200_BASE,HPI_DATA,0x0008); //4 port number
 8001618:	00c00204 	movi	r3,8
 800161c:	00840034 	movhi	r2,4096
 8001620:	10c00035 	stwio	r3,0(r2)
	IOWR(CY7C67200_BASE,HPI_DATA,0x02D0); //device address
 8001624:	00c0b404 	movi	r3,720
 8001628:	00840034 	movhi	r2,4096
 800162c:	10c00035 	stwio	r3,0(r2)
	IOWR(CY7C67200_BASE,HPI_DATA,0x0001);
 8001630:	00c00044 	movi	r3,1
 8001634:	00840034 	movhi	r2,4096
 8001638:	10c00035 	stwio	r3,0(r2)
	IOWR(CY7C67200_BASE,HPI_DATA,0x0013);
 800163c:	00c004c4 	movi	r3,19
 8001640:	00840034 	movhi	r2,4096
 8001644:	10c00035 	stwio	r3,0(r2)
	IOWR(CY7C67200_BASE,HPI_DATA,0x0514);
 8001648:	00c14504 	movi	r3,1300
 800164c:	00840034 	movhi	r2,4096
 8001650:	10c00035 	stwio	r3,0(r2)

	//td content 4 bytes
	IOWR(CY7C67200_BASE,HPI_DATA,0x0680);//c
 8001654:	00c1a004 	movi	r3,1664
 8001658:	00840034 	movhi	r2,4096
 800165c:	10c00035 	stwio	r3,0(r2)
	IOWR(CY7C67200_BASE,HPI_DATA,0x0200);//e //config 0x02
 8001660:	00c08004 	movi	r3,512
 8001664:	00840034 	movhi	r2,4096
 8001668:	10c00035 	stwio	r3,0(r2)
	IOWR(CY7C67200_BASE,HPI_DATA,0x0000);//0
 800166c:	0007883a 	mov	r3,zero
 8001670:	00840034 	movhi	r2,4096
 8001674:	10c00035 	stwio	r3,0(r2)
	IOWR(CY7C67200_BASE,HPI_DATA,0x00FF);//2
 8001678:	00c03fc4 	movi	r3,255
 800167c:	00840034 	movhi	r2,4096
 8001680:	10c00035 	stwio	r3,0(r2)

	//data phase IN-1
	IOWR(CY7C67200_BASE,HPI_DATA,0x055c); //514
 8001684:	00c15704 	movi	r3,1372
 8001688:	00840034 	movhi	r2,4096
 800168c:	10c00035 	stwio	r3,0(r2)
	IOWR(CY7C67200_BASE,HPI_DATA,0x0008);//6
 8001690:	00c00204 	movi	r3,8
 8001694:	00840034 	movhi	r2,4096
 8001698:	10c00035 	stwio	r3,0(r2)
	IOWR(CY7C67200_BASE,HPI_DATA,0x0290);//8
 800169c:	00c0a404 	movi	r3,656
 80016a0:	00840034 	movhi	r2,4096
 80016a4:	10c00035 	stwio	r3,0(r2)
	IOWR(CY7C67200_BASE,HPI_DATA,0x0041);//a
 80016a8:	00c01044 	movi	r3,65
 80016ac:	00840034 	movhi	r2,4096
 80016b0:	10c00035 	stwio	r3,0(r2)
	IOWR(CY7C67200_BASE,HPI_DATA,0x0013);//c
 80016b4:	00c004c4 	movi	r3,19
 80016b8:	00840034 	movhi	r2,4096
 80016bc:	10c00035 	stwio	r3,0(r2)
	IOWR(CY7C67200_BASE,HPI_DATA,0x0520);//e
 80016c0:	00c14804 	movi	r3,1312
 80016c4:	00840034 	movhi	r2,4096
 80016c8:	10c00035 	stwio	r3,0(r2)

	//data phase IN-2
	IOWR(CY7C67200_BASE,HPI_DATA,0x0564); //520
 80016cc:	00c15904 	movi	r3,1380
 80016d0:	00840034 	movhi	r2,4096
 80016d4:	10c00035 	stwio	r3,0(r2)
	IOWR(CY7C67200_BASE,HPI_DATA,0x0008);//2
 80016d8:	00c00204 	movi	r3,8
 80016dc:	00840034 	movhi	r2,4096
 80016e0:	10c00035 	stwio	r3,0(r2)
	IOWR(CY7C67200_BASE,HPI_DATA,0x0290);//4
 80016e4:	00c0a404 	movi	r3,656
 80016e8:	00840034 	movhi	r2,4096
 80016ec:	10c00035 	stwio	r3,0(r2)
	IOWR(CY7C67200_BASE,HPI_DATA,0x0001);//6 //data0
 80016f0:	00c00044 	movi	r3,1
 80016f4:	00840034 	movhi	r2,4096
 80016f8:	10c00035 	stwio	r3,0(r2)
	IOWR(CY7C67200_BASE,HPI_DATA,0x0013);//8
 80016fc:	00c004c4 	movi	r3,19
 8001700:	00840034 	movhi	r2,4096
 8001704:	10c00035 	stwio	r3,0(r2)
	IOWR(CY7C67200_BASE,HPI_DATA,0x052c);//a
 8001708:	00c14b04 	movi	r3,1324
 800170c:	00840034 	movhi	r2,4096
 8001710:	10c00035 	stwio	r3,0(r2)

	//data phase IN-3
	IOWR(CY7C67200_BASE,HPI_DATA,0x056c); //52c
 8001714:	00c15b04 	movi	r3,1388
 8001718:	00840034 	movhi	r2,4096
 800171c:	10c00035 	stwio	r3,0(r2)
	IOWR(CY7C67200_BASE,HPI_DATA,0x0008);//e
 8001720:	00c00204 	movi	r3,8
 8001724:	00840034 	movhi	r2,4096
 8001728:	10c00035 	stwio	r3,0(r2)
	IOWR(CY7C67200_BASE,HPI_DATA,0x0290);//530
 800172c:	00c0a404 	movi	r3,656
 8001730:	00840034 	movhi	r2,4096
 8001734:	10c00035 	stwio	r3,0(r2)
	IOWR(CY7C67200_BASE,HPI_DATA,0x0041);//2
 8001738:	00c01044 	movi	r3,65
 800173c:	00840034 	movhi	r2,4096
 8001740:	10c00035 	stwio	r3,0(r2)
	IOWR(CY7C67200_BASE,HPI_DATA,0x0013);//4
 8001744:	00c004c4 	movi	r3,19
 8001748:	00840034 	movhi	r2,4096
 800174c:	10c00035 	stwio	r3,0(r2)
	IOWR(CY7C67200_BASE,HPI_DATA,0x0538);//6
 8001750:	00c14e04 	movi	r3,1336
 8001754:	00840034 	movhi	r2,4096
 8001758:	10c00035 	stwio	r3,0(r2)

	//data phase IN-4
	IOWR(CY7C67200_BASE,HPI_DATA,0x0574); //538
 800175c:	00c15d04 	movi	r3,1396
 8001760:	00840034 	movhi	r2,4096
 8001764:	10c00035 	stwio	r3,0(r2)
	IOWR(CY7C67200_BASE,HPI_DATA,0x0008);//a
 8001768:	00c00204 	movi	r3,8
 800176c:	00840034 	movhi	r2,4096
 8001770:	10c00035 	stwio	r3,0(r2)
	IOWR(CY7C67200_BASE,HPI_DATA,0x0290);//c
 8001774:	00c0a404 	movi	r3,656
 8001778:	00840034 	movhi	r2,4096
 800177c:	10c00035 	stwio	r3,0(r2)
	IOWR(CY7C67200_BASE,HPI_DATA,0x0001);//e //data0
 8001780:	00c00044 	movi	r3,1
 8001784:	00840034 	movhi	r2,4096
 8001788:	10c00035 	stwio	r3,0(r2)
	IOWR(CY7C67200_BASE,HPI_DATA,0x0013);//540
 800178c:	00c004c4 	movi	r3,19
 8001790:	00840034 	movhi	r2,4096
 8001794:	10c00035 	stwio	r3,0(r2)
	IOWR(CY7C67200_BASE,HPI_DATA,0x0544);//2
 8001798:	00c15104 	movi	r3,1348
 800179c:	00840034 	movhi	r2,4096
 80017a0:	10c00035 	stwio	r3,0(r2)

	//data phase IN-5
	IOWR(CY7C67200_BASE,HPI_DATA,0x057c); //544
 80017a4:	00c15f04 	movi	r3,1404
 80017a8:	00840034 	movhi	r2,4096
 80017ac:	10c00035 	stwio	r3,0(r2)
	IOWR(CY7C67200_BASE,HPI_DATA,0x0002);//6
 80017b0:	00c00084 	movi	r3,2
 80017b4:	00840034 	movhi	r2,4096
 80017b8:	10c00035 	stwio	r3,0(r2)
	IOWR(CY7C67200_BASE,HPI_DATA,0x0290);//8
 80017bc:	00c0a404 	movi	r3,656
 80017c0:	00840034 	movhi	r2,4096
 80017c4:	10c00035 	stwio	r3,0(r2)
	IOWR(CY7C67200_BASE,HPI_DATA,0x0041);//a //data1
 80017c8:	00c01044 	movi	r3,65
 80017cc:	00840034 	movhi	r2,4096
 80017d0:	10c00035 	stwio	r3,0(r2)
	IOWR(CY7C67200_BASE,HPI_DATA,0x0013);//c
 80017d4:	00c004c4 	movi	r3,19
 80017d8:	00840034 	movhi	r2,4096
 80017dc:	10c00035 	stwio	r3,0(r2)
	IOWR(CY7C67200_BASE,HPI_DATA,0x0550);//e
 80017e0:	00c15404 	movi	r3,1360
 80017e4:	00840034 	movhi	r2,4096
 80017e8:	10c00035 	stwio	r3,0(r2)

	//status phase
	IOWR(CY7C67200_BASE,HPI_DATA,0x0000); //550
 80017ec:	0007883a 	mov	r3,zero
 80017f0:	00840034 	movhi	r2,4096
 80017f4:	10c00035 	stwio	r3,0(r2)
	IOWR(CY7C67200_BASE,HPI_DATA,0x0000);//2
 80017f8:	0007883a 	mov	r3,zero
 80017fc:	00840034 	movhi	r2,4096
 8001800:	10c00035 	stwio	r3,0(r2)
	IOWR(CY7C67200_BASE,HPI_DATA,0x0210);//4
 8001804:	00c08404 	movi	r3,528
 8001808:	00840034 	movhi	r2,4096
 800180c:	10c00035 	stwio	r3,0(r2)
	IOWR(CY7C67200_BASE,HPI_DATA,0x0041);//6
 8001810:	00c01044 	movi	r3,65
 8001814:	00840034 	movhi	r2,4096
 8001818:	10c00035 	stwio	r3,0(r2)
	IOWR(CY7C67200_BASE,HPI_DATA,0x0013);//8
 800181c:	00c004c4 	movi	r3,19
 8001820:	00840034 	movhi	r2,4096
 8001824:	10c00035 	stwio	r3,0(r2)
	IOWR(CY7C67200_BASE,HPI_DATA,0x0000);//a
 8001828:	0007883a 	mov	r3,zero
 800182c:	00840034 	movhi	r2,4096
 8001830:	10c00035 	stwio	r3,0(r2)

	UsbWrite(HUSB_SIE1_pCurrentTDPtr,0x0500); //HUSB_SIE1_pCurrentTDPtr
 8001834:	01006c04 	movi	r4,432
 8001838:	01414004 	movi	r5,1280
 800183c:	8000efc0 	call	8000efc <UsbWrite>
}
 8001840:	e037883a 	mov	sp,fp
 8001844:	dfc00117 	ldw	ra,4(sp)
 8001848:	df000017 	ldw	fp,0(sp)
 800184c:	dec00204 	addi	sp,sp,8
 8001850:	f800283a 	ret

08001854 <UsbSetConfig>:

void UsbSetConfig()
{
 8001854:	defffe04 	addi	sp,sp,-8
 8001858:	dfc00115 	stw	ra,4(sp)
 800185c:	df000015 	stw	fp,0(sp)
 8001860:	d839883a 	mov	fp,sp
	//the starting address
	IOWR(CY7C67200_BASE,HPI_ADDR,0x0500); //the start address
 8001864:	00c14004 	movi	r3,1280
 8001868:	00840034 	movhi	r2,4096
 800186c:	10800204 	addi	r2,r2,8
 8001870:	10c00035 	stwio	r3,0(r2)
	IOWR(CY7C67200_BASE,HPI_DATA,0x050C);
 8001874:	00c14304 	movi	r3,1292
 8001878:	00840034 	movhi	r2,4096
 800187c:	10c00035 	stwio	r3,0(r2)
	IOWR(CY7C67200_BASE,HPI_DATA,0x0008); //4 port number
 8001880:	00c00204 	movi	r3,8
 8001884:	00840034 	movhi	r2,4096
 8001888:	10c00035 	stwio	r3,0(r2)
	IOWR(CY7C67200_BASE,HPI_DATA,0x02D0); //port address
 800188c:	00c0b404 	movi	r3,720
 8001890:	00840034 	movhi	r2,4096
 8001894:	10c00035 	stwio	r3,0(r2)
	IOWR(CY7C67200_BASE,HPI_DATA,0x0001);
 8001898:	00c00044 	movi	r3,1
 800189c:	00840034 	movhi	r2,4096
 80018a0:	10c00035 	stwio	r3,0(r2)
	IOWR(CY7C67200_BASE,HPI_DATA,0x0013);
 80018a4:	00c004c4 	movi	r3,19
 80018a8:	00840034 	movhi	r2,4096
 80018ac:	10c00035 	stwio	r3,0(r2)
	IOWR(CY7C67200_BASE,HPI_DATA,0x0514);
 80018b0:	00c14504 	movi	r3,1300
 80018b4:	00840034 	movhi	r2,4096
 80018b8:	10c00035 	stwio	r3,0(r2)

	//td content 4 bytes
	IOWR(CY7C67200_BASE,HPI_DATA,0x0900);
 80018bc:	00c24004 	movi	r3,2304
 80018c0:	00840034 	movhi	r2,4096
 80018c4:	10c00035 	stwio	r3,0(r2)
	IOWR(CY7C67200_BASE,HPI_DATA,0x0001);//device address
 80018c8:	00c00044 	movi	r3,1
 80018cc:	00840034 	movhi	r2,4096
 80018d0:	10c00035 	stwio	r3,0(r2)
	IOWR(CY7C67200_BASE,HPI_DATA,0x0000);
 80018d4:	0007883a 	mov	r3,zero
 80018d8:	00840034 	movhi	r2,4096
 80018dc:	10c00035 	stwio	r3,0(r2)
	IOWR(CY7C67200_BASE,HPI_DATA,0x0000);
 80018e0:	0007883a 	mov	r3,zero
 80018e4:	00840034 	movhi	r2,4096
 80018e8:	10c00035 	stwio	r3,0(r2)
	//in packet
	IOWR(CY7C67200_BASE,HPI_DATA,0x0000); //don't care
 80018ec:	0007883a 	mov	r3,zero
 80018f0:	00840034 	movhi	r2,4096
 80018f4:	10c00035 	stwio	r3,0(r2)
	IOWR(CY7C67200_BASE,HPI_DATA,0x0000);//port number
 80018f8:	0007883a 	mov	r3,zero
 80018fc:	00840034 	movhi	r2,4096
 8001900:	10c00035 	stwio	r3,0(r2)
	IOWR(CY7C67200_BASE,HPI_DATA,0x0290);//device address
 8001904:	00c0a404 	movi	r3,656
 8001908:	00840034 	movhi	r2,4096
 800190c:	10c00035 	stwio	r3,0(r2)
	IOWR(CY7C67200_BASE,HPI_DATA,0x0041); //data 1
 8001910:	00c01044 	movi	r3,65
 8001914:	00840034 	movhi	r2,4096
 8001918:	10c00035 	stwio	r3,0(r2)
	IOWR(CY7C67200_BASE,HPI_DATA,0x0013);
 800191c:	00c004c4 	movi	r3,19
 8001920:	00840034 	movhi	r2,4096
 8001924:	10c00035 	stwio	r3,0(r2)
	IOWR(CY7C67200_BASE,HPI_DATA,0x0000);
 8001928:	0007883a 	mov	r3,zero
 800192c:	00840034 	movhi	r2,4096
 8001930:	10c00035 	stwio	r3,0(r2)

	UsbWrite(HUSB_SIE1_pCurrentTDPtr,0x0500); //HUSB_SIE1_pCurrentTDPtr
 8001934:	01006c04 	movi	r4,432
 8001938:	01414004 	movi	r5,1280
 800193c:	8000efc0 	call	8000efc <UsbWrite>

}
 8001940:	e037883a 	mov	sp,fp
 8001944:	dfc00117 	ldw	ra,4(sp)
 8001948:	df000017 	ldw	fp,0(sp)
 800194c:	dec00204 	addi	sp,sp,8
 8001950:	f800283a 	ret

08001954 <UsbClassRequest>:

void UsbClassRequest()
{
 8001954:	defffe04 	addi	sp,sp,-8
 8001958:	dfc00115 	stw	ra,4(sp)
 800195c:	df000015 	stw	fp,0(sp)
 8001960:	d839883a 	mov	fp,sp
	//the starting address
	IOWR(CY7C67200_BASE,HPI_ADDR,0x0500); //the start address
 8001964:	00c14004 	movi	r3,1280
 8001968:	00840034 	movhi	r2,4096
 800196c:	10800204 	addi	r2,r2,8
 8001970:	10c00035 	stwio	r3,0(r2)
	IOWR(CY7C67200_BASE,HPI_DATA,0x050C);
 8001974:	00c14304 	movi	r3,1292
 8001978:	00840034 	movhi	r2,4096
 800197c:	10c00035 	stwio	r3,0(r2)
	IOWR(CY7C67200_BASE,HPI_DATA,0x0008); //4 port number
 8001980:	00c00204 	movi	r3,8
 8001984:	00840034 	movhi	r2,4096
 8001988:	10c00035 	stwio	r3,0(r2)
	IOWR(CY7C67200_BASE,HPI_DATA,0x02D0); //port address
 800198c:	00c0b404 	movi	r3,720
 8001990:	00840034 	movhi	r2,4096
 8001994:	10c00035 	stwio	r3,0(r2)
	IOWR(CY7C67200_BASE,HPI_DATA,0x0001);
 8001998:	00c00044 	movi	r3,1
 800199c:	00840034 	movhi	r2,4096
 80019a0:	10c00035 	stwio	r3,0(r2)
	IOWR(CY7C67200_BASE,HPI_DATA,0x0013);
 80019a4:	00c004c4 	movi	r3,19
 80019a8:	00840034 	movhi	r2,4096
 80019ac:	10c00035 	stwio	r3,0(r2)
	IOWR(CY7C67200_BASE,HPI_DATA,0x0514);
 80019b0:	00c14504 	movi	r3,1300
 80019b4:	00840034 	movhi	r2,4096
 80019b8:	10c00035 	stwio	r3,0(r2)

	//td content 4 bytes
	IOWR(CY7C67200_BASE,HPI_DATA,0x0A21);
 80019bc:	00c28844 	movi	r3,2593
 80019c0:	00840034 	movhi	r2,4096
 80019c4:	10c00035 	stwio	r3,0(r2)
	IOWR(CY7C67200_BASE,HPI_DATA,0x0000);//device address
 80019c8:	0007883a 	mov	r3,zero
 80019cc:	00840034 	movhi	r2,4096
 80019d0:	10c00035 	stwio	r3,0(r2)
	IOWR(CY7C67200_BASE,HPI_DATA,0x0000);
 80019d4:	0007883a 	mov	r3,zero
 80019d8:	00840034 	movhi	r2,4096
 80019dc:	10c00035 	stwio	r3,0(r2)
	IOWR(CY7C67200_BASE,HPI_DATA,0x0000);
 80019e0:	0007883a 	mov	r3,zero
 80019e4:	00840034 	movhi	r2,4096
 80019e8:	10c00035 	stwio	r3,0(r2)
	//in packet
	IOWR(CY7C67200_BASE,HPI_DATA,0x0000); //don't care
 80019ec:	0007883a 	mov	r3,zero
 80019f0:	00840034 	movhi	r2,4096
 80019f4:	10c00035 	stwio	r3,0(r2)
	IOWR(CY7C67200_BASE,HPI_DATA,0x0000);//port number /data length
 80019f8:	0007883a 	mov	r3,zero
 80019fc:	00840034 	movhi	r2,4096
 8001a00:	10c00035 	stwio	r3,0(r2)
	IOWR(CY7C67200_BASE,HPI_DATA,0x0290);//device address
 8001a04:	00c0a404 	movi	r3,656
 8001a08:	00840034 	movhi	r2,4096
 8001a0c:	10c00035 	stwio	r3,0(r2)
	IOWR(CY7C67200_BASE,HPI_DATA,0x0041); //data 1
 8001a10:	00c01044 	movi	r3,65
 8001a14:	00840034 	movhi	r2,4096
 8001a18:	10c00035 	stwio	r3,0(r2)
	IOWR(CY7C67200_BASE,HPI_DATA,0x0013);
 8001a1c:	00c004c4 	movi	r3,19
 8001a20:	00840034 	movhi	r2,4096
 8001a24:	10c00035 	stwio	r3,0(r2)
	IOWR(CY7C67200_BASE,HPI_DATA,0x0000);
 8001a28:	0007883a 	mov	r3,zero
 8001a2c:	00840034 	movhi	r2,4096
 8001a30:	10c00035 	stwio	r3,0(r2)

	UsbWrite(HUSB_SIE1_pCurrentTDPtr,0x0500); //HUSB_SIE1_pCurrentTDPtr
 8001a34:	01006c04 	movi	r4,432
 8001a38:	01414004 	movi	r5,1280
 8001a3c:	8000efc0 	call	8000efc <UsbWrite>
}
 8001a40:	e037883a 	mov	sp,fp
 8001a44:	dfc00117 	ldw	ra,4(sp)
 8001a48:	df000017 	ldw	fp,0(sp)
 8001a4c:	dec00204 	addi	sp,sp,8
 8001a50:	f800283a 	ret

08001a54 <UsbGetHidDesc>:


void UsbGetHidDesc()
{
 8001a54:	defffe04 	addi	sp,sp,-8
 8001a58:	dfc00115 	stw	ra,4(sp)
 8001a5c:	df000015 	stw	fp,0(sp)
 8001a60:	d839883a 	mov	fp,sp
	//the starting address
	IOWR(CY7C67200_BASE,HPI_ADDR,0x0500); //the start address
 8001a64:	00c14004 	movi	r3,1280
 8001a68:	00840034 	movhi	r2,4096
 8001a6c:	10800204 	addi	r2,r2,8
 8001a70:	10c00035 	stwio	r3,0(r2)
	IOWR(CY7C67200_BASE,HPI_DATA,0x050C);
 8001a74:	00c14304 	movi	r3,1292
 8001a78:	00840034 	movhi	r2,4096
 8001a7c:	10c00035 	stwio	r3,0(r2)
	IOWR(CY7C67200_BASE,HPI_DATA,0x0008); //4 port number
 8001a80:	00c00204 	movi	r3,8
 8001a84:	00840034 	movhi	r2,4096
 8001a88:	10c00035 	stwio	r3,0(r2)
	IOWR(CY7C67200_BASE,HPI_DATA,0x02D0); //port address
 8001a8c:	00c0b404 	movi	r3,720
 8001a90:	00840034 	movhi	r2,4096
 8001a94:	10c00035 	stwio	r3,0(r2)
	IOWR(CY7C67200_BASE,HPI_DATA,0x0001);
 8001a98:	00c00044 	movi	r3,1
 8001a9c:	00840034 	movhi	r2,4096
 8001aa0:	10c00035 	stwio	r3,0(r2)
	IOWR(CY7C67200_BASE,HPI_DATA,0x0013);
 8001aa4:	00c004c4 	movi	r3,19
 8001aa8:	00840034 	movhi	r2,4096
 8001aac:	10c00035 	stwio	r3,0(r2)
	IOWR(CY7C67200_BASE,HPI_DATA,0x0514);
 8001ab0:	00c14504 	movi	r3,1300
 8001ab4:	00840034 	movhi	r2,4096
 8001ab8:	10c00035 	stwio	r3,0(r2)

	//td content 4 bytes
	IOWR(CY7C67200_BASE,HPI_DATA,0x0681);//c
 8001abc:	00c1a044 	movi	r3,1665
 8001ac0:	00840034 	movhi	r2,4096
 8001ac4:	10c00035 	stwio	r3,0(r2)
	IOWR(CY7C67200_BASE,HPI_DATA,0x2100);//e //HID 0x21
 8001ac8:	00c84004 	movi	r3,8448
 8001acc:	00840034 	movhi	r2,4096
 8001ad0:	10c00035 	stwio	r3,0(r2)
	IOWR(CY7C67200_BASE,HPI_DATA,0x0000);//0
 8001ad4:	0007883a 	mov	r3,zero
 8001ad8:	00840034 	movhi	r2,4096
 8001adc:	10c00035 	stwio	r3,0(r2)
	IOWR(CY7C67200_BASE,HPI_DATA,0x007B);//2
 8001ae0:	00c01ec4 	movi	r3,123
 8001ae4:	00840034 	movhi	r2,4096
 8001ae8:	10c00035 	stwio	r3,0(r2)

	//data phase IN-1
	IOWR(CY7C67200_BASE,HPI_DATA,0x0544); //514
 8001aec:	00c15104 	movi	r3,1348
 8001af0:	00840034 	movhi	r2,4096
 8001af4:	10c00035 	stwio	r3,0(r2)
	IOWR(CY7C67200_BASE,HPI_DATA,0x0008);//6
 8001af8:	00c00204 	movi	r3,8
 8001afc:	00840034 	movhi	r2,4096
 8001b00:	10c00035 	stwio	r3,0(r2)
	IOWR(CY7C67200_BASE,HPI_DATA,0x0290);//8
 8001b04:	00c0a404 	movi	r3,656
 8001b08:	00840034 	movhi	r2,4096
 8001b0c:	10c00035 	stwio	r3,0(r2)
	IOWR(CY7C67200_BASE,HPI_DATA,0x0041);//a
 8001b10:	00c01044 	movi	r3,65
 8001b14:	00840034 	movhi	r2,4096
 8001b18:	10c00035 	stwio	r3,0(r2)
	IOWR(CY7C67200_BASE,HPI_DATA,0x0013);//c
 8001b1c:	00c004c4 	movi	r3,19
 8001b20:	00840034 	movhi	r2,4096
 8001b24:	10c00035 	stwio	r3,0(r2)
	IOWR(CY7C67200_BASE,HPI_DATA,0x0520);//e
 8001b28:	00c14804 	movi	r3,1312
 8001b2c:	00840034 	movhi	r2,4096
 8001b30:	10c00035 	stwio	r3,0(r2)

	//status phase
	IOWR(CY7C67200_BASE,HPI_DATA,0x0000); //52c
 8001b34:	0007883a 	mov	r3,zero
 8001b38:	00840034 	movhi	r2,4096
 8001b3c:	10c00035 	stwio	r3,0(r2)
	IOWR(CY7C67200_BASE,HPI_DATA,0x0000);//e
 8001b40:	0007883a 	mov	r3,zero
 8001b44:	00840034 	movhi	r2,4096
 8001b48:	10c00035 	stwio	r3,0(r2)
	IOWR(CY7C67200_BASE,HPI_DATA,0x0210);//530
 8001b4c:	00c08404 	movi	r3,528
 8001b50:	00840034 	movhi	r2,4096
 8001b54:	10c00035 	stwio	r3,0(r2)
	IOWR(CY7C67200_BASE,HPI_DATA,0x0041);//2
 8001b58:	00c01044 	movi	r3,65
 8001b5c:	00840034 	movhi	r2,4096
 8001b60:	10c00035 	stwio	r3,0(r2)
	IOWR(CY7C67200_BASE,HPI_DATA,0x0013);//4
 8001b64:	00c004c4 	movi	r3,19
 8001b68:	00840034 	movhi	r2,4096
 8001b6c:	10c00035 	stwio	r3,0(r2)
	IOWR(CY7C67200_BASE,HPI_DATA,0x0000);//6
 8001b70:	0007883a 	mov	r3,zero
 8001b74:	00840034 	movhi	r2,4096
 8001b78:	10c00035 	stwio	r3,0(r2)

	UsbWrite(HUSB_SIE1_pCurrentTDPtr,0x0500); //HUSB_SIE1_pCurrentTDPtr
 8001b7c:	01006c04 	movi	r4,432
 8001b80:	01414004 	movi	r5,1280
 8001b84:	8000efc0 	call	8000efc <UsbWrite>

}
 8001b88:	e037883a 	mov	sp,fp
 8001b8c:	dfc00117 	ldw	ra,4(sp)
 8001b90:	df000017 	ldw	fp,0(sp)
 8001b94:	dec00204 	addi	sp,sp,8
 8001b98:	f800283a 	ret

08001b9c <UsbGetReportDesc>:


void UsbGetReportDesc()
{
 8001b9c:	defffe04 	addi	sp,sp,-8
 8001ba0:	dfc00115 	stw	ra,4(sp)
 8001ba4:	df000015 	stw	fp,0(sp)
 8001ba8:	d839883a 	mov	fp,sp
	//the starting address
	IOWR(CY7C67200_BASE,HPI_ADDR,0x0500); //the start address
 8001bac:	00c14004 	movi	r3,1280
 8001bb0:	00840034 	movhi	r2,4096
 8001bb4:	10800204 	addi	r2,r2,8
 8001bb8:	10c00035 	stwio	r3,0(r2)
	IOWR(CY7C67200_BASE,HPI_DATA,0x050C);
 8001bbc:	00c14304 	movi	r3,1292
 8001bc0:	00840034 	movhi	r2,4096
 8001bc4:	10c00035 	stwio	r3,0(r2)
	IOWR(CY7C67200_BASE,HPI_DATA,0x0008); //4 port number
 8001bc8:	00c00204 	movi	r3,8
 8001bcc:	00840034 	movhi	r2,4096
 8001bd0:	10c00035 	stwio	r3,0(r2)
	IOWR(CY7C67200_BASE,HPI_DATA,0x02D0); //device address
 8001bd4:	00c0b404 	movi	r3,720
 8001bd8:	00840034 	movhi	r2,4096
 8001bdc:	10c00035 	stwio	r3,0(r2)
	IOWR(CY7C67200_BASE,HPI_DATA,0x0001);
 8001be0:	00c00044 	movi	r3,1
 8001be4:	00840034 	movhi	r2,4096
 8001be8:	10c00035 	stwio	r3,0(r2)
	IOWR(CY7C67200_BASE,HPI_DATA,0x0013);
 8001bec:	00c004c4 	movi	r3,19
 8001bf0:	00840034 	movhi	r2,4096
 8001bf4:	10c00035 	stwio	r3,0(r2)
	IOWR(CY7C67200_BASE,HPI_DATA,0x0514);
 8001bf8:	00c14504 	movi	r3,1300
 8001bfc:	00840034 	movhi	r2,4096
 8001c00:	10c00035 	stwio	r3,0(r2)

	//td content 4 bytes
	IOWR(CY7C67200_BASE,HPI_DATA,0x0681);//c
 8001c04:	00c1a044 	movi	r3,1665
 8001c08:	00840034 	movhi	r2,4096
 8001c0c:	10c00035 	stwio	r3,0(r2)
	IOWR(CY7C67200_BASE,HPI_DATA,0x2200);//e //report 0x22
 8001c10:	00c88004 	movi	r3,8704
 8001c14:	00840034 	movhi	r2,4096
 8001c18:	10c00035 	stwio	r3,0(r2)
	IOWR(CY7C67200_BASE,HPI_DATA,0x0000);//0
 8001c1c:	0007883a 	mov	r3,zero
 8001c20:	00840034 	movhi	r2,4096
 8001c24:	10c00035 	stwio	r3,0(r2)
	IOWR(CY7C67200_BASE,HPI_DATA,0x007B);//2
 8001c28:	00c01ec4 	movi	r3,123
 8001c2c:	00840034 	movhi	r2,4096
 8001c30:	10c00035 	stwio	r3,0(r2)

	//data phase IN-1
	IOWR(CY7C67200_BASE,HPI_DATA,0x0580); //514
 8001c34:	00c16004 	movi	r3,1408
 8001c38:	00840034 	movhi	r2,4096
 8001c3c:	10c00035 	stwio	r3,0(r2)
	IOWR(CY7C67200_BASE,HPI_DATA,0x0008);//6
 8001c40:	00c00204 	movi	r3,8
 8001c44:	00840034 	movhi	r2,4096
 8001c48:	10c00035 	stwio	r3,0(r2)
	IOWR(CY7C67200_BASE,HPI_DATA,0x0290);//8
 8001c4c:	00c0a404 	movi	r3,656
 8001c50:	00840034 	movhi	r2,4096
 8001c54:	10c00035 	stwio	r3,0(r2)
	IOWR(CY7C67200_BASE,HPI_DATA,0x0041);//a
 8001c58:	00c01044 	movi	r3,65
 8001c5c:	00840034 	movhi	r2,4096
 8001c60:	10c00035 	stwio	r3,0(r2)
	IOWR(CY7C67200_BASE,HPI_DATA,0x0013);//c
 8001c64:	00c004c4 	movi	r3,19
 8001c68:	00840034 	movhi	r2,4096
 8001c6c:	10c00035 	stwio	r3,0(r2)
	IOWR(CY7C67200_BASE,HPI_DATA,0x0520);//e
 8001c70:	00c14804 	movi	r3,1312
 8001c74:	00840034 	movhi	r2,4096
 8001c78:	10c00035 	stwio	r3,0(r2)

	//data phase IN-2
	IOWR(CY7C67200_BASE,HPI_DATA,0x0588); //520
 8001c7c:	00c16204 	movi	r3,1416
 8001c80:	00840034 	movhi	r2,4096
 8001c84:	10c00035 	stwio	r3,0(r2)
	IOWR(CY7C67200_BASE,HPI_DATA,0x0008);//2
 8001c88:	00c00204 	movi	r3,8
 8001c8c:	00840034 	movhi	r2,4096
 8001c90:	10c00035 	stwio	r3,0(r2)
	IOWR(CY7C67200_BASE,HPI_DATA,0x0290);//4
 8001c94:	00c0a404 	movi	r3,656
 8001c98:	00840034 	movhi	r2,4096
 8001c9c:	10c00035 	stwio	r3,0(r2)
	IOWR(CY7C67200_BASE,HPI_DATA,0x0001);//6 //data0
 8001ca0:	00c00044 	movi	r3,1
 8001ca4:	00840034 	movhi	r2,4096
 8001ca8:	10c00035 	stwio	r3,0(r2)
	IOWR(CY7C67200_BASE,HPI_DATA,0x0013);//8
 8001cac:	00c004c4 	movi	r3,19
 8001cb0:	00840034 	movhi	r2,4096
 8001cb4:	10c00035 	stwio	r3,0(r2)
	IOWR(CY7C67200_BASE,HPI_DATA,0x052c);//a
 8001cb8:	00c14b04 	movi	r3,1324
 8001cbc:	00840034 	movhi	r2,4096
 8001cc0:	10c00035 	stwio	r3,0(r2)

	//data phase IN-3
	IOWR(CY7C67200_BASE,HPI_DATA,0x0590); //52c
 8001cc4:	00c16404 	movi	r3,1424
 8001cc8:	00840034 	movhi	r2,4096
 8001ccc:	10c00035 	stwio	r3,0(r2)
	IOWR(CY7C67200_BASE,HPI_DATA,0x0008);//e
 8001cd0:	00c00204 	movi	r3,8
 8001cd4:	00840034 	movhi	r2,4096
 8001cd8:	10c00035 	stwio	r3,0(r2)
	IOWR(CY7C67200_BASE,HPI_DATA,0x0290);//530
 8001cdc:	00c0a404 	movi	r3,656
 8001ce0:	00840034 	movhi	r2,4096
 8001ce4:	10c00035 	stwio	r3,0(r2)
	IOWR(CY7C67200_BASE,HPI_DATA,0x0041);//2
 8001ce8:	00c01044 	movi	r3,65
 8001cec:	00840034 	movhi	r2,4096
 8001cf0:	10c00035 	stwio	r3,0(r2)
	IOWR(CY7C67200_BASE,HPI_DATA,0x0013);//4
 8001cf4:	00c004c4 	movi	r3,19
 8001cf8:	00840034 	movhi	r2,4096
 8001cfc:	10c00035 	stwio	r3,0(r2)
	IOWR(CY7C67200_BASE,HPI_DATA,0x0538);//6
 8001d00:	00c14e04 	movi	r3,1336
 8001d04:	00840034 	movhi	r2,4096
 8001d08:	10c00035 	stwio	r3,0(r2)

	//data phase IN-4
	IOWR(CY7C67200_BASE,HPI_DATA,0x0598); //538
 8001d0c:	00c16604 	movi	r3,1432
 8001d10:	00840034 	movhi	r2,4096
 8001d14:	10c00035 	stwio	r3,0(r2)
	IOWR(CY7C67200_BASE,HPI_DATA,0x0008);//a
 8001d18:	00c00204 	movi	r3,8
 8001d1c:	00840034 	movhi	r2,4096
 8001d20:	10c00035 	stwio	r3,0(r2)
	IOWR(CY7C67200_BASE,HPI_DATA,0x0290);//c
 8001d24:	00c0a404 	movi	r3,656
 8001d28:	00840034 	movhi	r2,4096
 8001d2c:	10c00035 	stwio	r3,0(r2)
	IOWR(CY7C67200_BASE,HPI_DATA,0x0001);//e //data0
 8001d30:	00c00044 	movi	r3,1
 8001d34:	00840034 	movhi	r2,4096
 8001d38:	10c00035 	stwio	r3,0(r2)
	IOWR(CY7C67200_BASE,HPI_DATA,0x0013);//540
 8001d3c:	00c004c4 	movi	r3,19
 8001d40:	00840034 	movhi	r2,4096
 8001d44:	10c00035 	stwio	r3,0(r2)
	IOWR(CY7C67200_BASE,HPI_DATA,0x0544);//2
 8001d48:	00c15104 	movi	r3,1348
 8001d4c:	00840034 	movhi	r2,4096
 8001d50:	10c00035 	stwio	r3,0(r2)

	//data phase IN-5
	IOWR(CY7C67200_BASE,HPI_DATA,0x05a0); //544
 8001d54:	00c16804 	movi	r3,1440
 8001d58:	00840034 	movhi	r2,4096
 8001d5c:	10c00035 	stwio	r3,0(r2)
	IOWR(CY7C67200_BASE,HPI_DATA,0x0008);//6
 8001d60:	00c00204 	movi	r3,8
 8001d64:	00840034 	movhi	r2,4096
 8001d68:	10c00035 	stwio	r3,0(r2)
	IOWR(CY7C67200_BASE,HPI_DATA,0x0290);//8
 8001d6c:	00c0a404 	movi	r3,656
 8001d70:	00840034 	movhi	r2,4096
 8001d74:	10c00035 	stwio	r3,0(r2)
	IOWR(CY7C67200_BASE,HPI_DATA,0x0041);//a //data1
 8001d78:	00c01044 	movi	r3,65
 8001d7c:	00840034 	movhi	r2,4096
 8001d80:	10c00035 	stwio	r3,0(r2)
	IOWR(CY7C67200_BASE,HPI_DATA,0x0013);//c
 8001d84:	00c004c4 	movi	r3,19
 8001d88:	00840034 	movhi	r2,4096
 8001d8c:	10c00035 	stwio	r3,0(r2)
	IOWR(CY7C67200_BASE,HPI_DATA,0x0550);//e
 8001d90:	00c15404 	movi	r3,1360
 8001d94:	00840034 	movhi	r2,4096
 8001d98:	10c00035 	stwio	r3,0(r2)

	//data phase IN-6
	IOWR(CY7C67200_BASE,HPI_DATA,0x05a8); //550
 8001d9c:	00c16a04 	movi	r3,1448
 8001da0:	00840034 	movhi	r2,4096
 8001da4:	10c00035 	stwio	r3,0(r2)
	IOWR(CY7C67200_BASE,HPI_DATA,0x0008);//2
 8001da8:	00c00204 	movi	r3,8
 8001dac:	00840034 	movhi	r2,4096
 8001db0:	10c00035 	stwio	r3,0(r2)
	IOWR(CY7C67200_BASE,HPI_DATA,0x0290);//4
 8001db4:	00c0a404 	movi	r3,656
 8001db8:	00840034 	movhi	r2,4096
 8001dbc:	10c00035 	stwio	r3,0(r2)
	IOWR(CY7C67200_BASE,HPI_DATA,0x0001);//6 //data0
 8001dc0:	00c00044 	movi	r3,1
 8001dc4:	00840034 	movhi	r2,4096
 8001dc8:	10c00035 	stwio	r3,0(r2)
	IOWR(CY7C67200_BASE,HPI_DATA,0x0013);//8
 8001dcc:	00c004c4 	movi	r3,19
 8001dd0:	00840034 	movhi	r2,4096
 8001dd4:	10c00035 	stwio	r3,0(r2)
	IOWR(CY7C67200_BASE,HPI_DATA,0x055c);//a
 8001dd8:	00c15704 	movi	r3,1372
 8001ddc:	00840034 	movhi	r2,4096
 8001de0:	10c00035 	stwio	r3,0(r2)

	//data phase IN-7
	IOWR(CY7C67200_BASE,HPI_DATA,0x05b0); //c
 8001de4:	00c16c04 	movi	r3,1456
 8001de8:	00840034 	movhi	r2,4096
 8001dec:	10c00035 	stwio	r3,0(r2)
	IOWR(CY7C67200_BASE,HPI_DATA,0x0008);//e
 8001df0:	00c00204 	movi	r3,8
 8001df4:	00840034 	movhi	r2,4096
 8001df8:	10c00035 	stwio	r3,0(r2)
	IOWR(CY7C67200_BASE,HPI_DATA,0x0290);//560
 8001dfc:	00c0a404 	movi	r3,656
 8001e00:	00840034 	movhi	r2,4096
 8001e04:	10c00035 	stwio	r3,0(r2)
	IOWR(CY7C67200_BASE,HPI_DATA,0x0041);//2 //data1
 8001e08:	00c01044 	movi	r3,65
 8001e0c:	00840034 	movhi	r2,4096
 8001e10:	10c00035 	stwio	r3,0(r2)
	IOWR(CY7C67200_BASE,HPI_DATA,0x0013);//4
 8001e14:	00c004c4 	movi	r3,19
 8001e18:	00840034 	movhi	r2,4096
 8001e1c:	10c00035 	stwio	r3,0(r2)
	IOWR(CY7C67200_BASE,HPI_DATA,0x0568);//6
 8001e20:	00c15a04 	movi	r3,1384
 8001e24:	00840034 	movhi	r2,4096
 8001e28:	10c00035 	stwio	r3,0(r2)

	//data phase IN-8
	IOWR(CY7C67200_BASE,HPI_DATA,0x05b8); //8
 8001e2c:	00c16e04 	movi	r3,1464
 8001e30:	00840034 	movhi	r2,4096
 8001e34:	10c00035 	stwio	r3,0(r2)
	IOWR(CY7C67200_BASE,HPI_DATA,0x0003);//a
 8001e38:	00c000c4 	movi	r3,3
 8001e3c:	00840034 	movhi	r2,4096
 8001e40:	10c00035 	stwio	r3,0(r2)
	IOWR(CY7C67200_BASE,HPI_DATA,0x0290);//c
 8001e44:	00c0a404 	movi	r3,656
 8001e48:	00840034 	movhi	r2,4096
 8001e4c:	10c00035 	stwio	r3,0(r2)
	IOWR(CY7C67200_BASE,HPI_DATA,0x0001);//e //data0
 8001e50:	00c00044 	movi	r3,1
 8001e54:	00840034 	movhi	r2,4096
 8001e58:	10c00035 	stwio	r3,0(r2)
	IOWR(CY7C67200_BASE,HPI_DATA,0x0013);//570
 8001e5c:	00c004c4 	movi	r3,19
 8001e60:	00840034 	movhi	r2,4096
 8001e64:	10c00035 	stwio	r3,0(r2)
	IOWR(CY7C67200_BASE,HPI_DATA,0x0574);//2
 8001e68:	00c15d04 	movi	r3,1396
 8001e6c:	00840034 	movhi	r2,4096
 8001e70:	10c00035 	stwio	r3,0(r2)

	//status phase
	IOWR(CY7C67200_BASE,HPI_DATA,0x0000); //574
 8001e74:	0007883a 	mov	r3,zero
 8001e78:	00840034 	movhi	r2,4096
 8001e7c:	10c00035 	stwio	r3,0(r2)
	IOWR(CY7C67200_BASE,HPI_DATA,0x0000);//6
 8001e80:	0007883a 	mov	r3,zero
 8001e84:	00840034 	movhi	r2,4096
 8001e88:	10c00035 	stwio	r3,0(r2)
	IOWR(CY7C67200_BASE,HPI_DATA,0x0210);//8
 8001e8c:	00c08404 	movi	r3,528
 8001e90:	00840034 	movhi	r2,4096
 8001e94:	10c00035 	stwio	r3,0(r2)
	IOWR(CY7C67200_BASE,HPI_DATA,0x0041);//a
 8001e98:	00c01044 	movi	r3,65
 8001e9c:	00840034 	movhi	r2,4096
 8001ea0:	10c00035 	stwio	r3,0(r2)
	IOWR(CY7C67200_BASE,HPI_DATA,0x0013);//c
 8001ea4:	00c004c4 	movi	r3,19
 8001ea8:	00840034 	movhi	r2,4096
 8001eac:	10c00035 	stwio	r3,0(r2)
	IOWR(CY7C67200_BASE,HPI_DATA,0x0000);//e
 8001eb0:	0007883a 	mov	r3,zero
 8001eb4:	00840034 	movhi	r2,4096
 8001eb8:	10c00035 	stwio	r3,0(r2)

	UsbWrite(HUSB_SIE1_pCurrentTDPtr,0x0500); //HUSB_SIE1_pCurrentTDPtr
 8001ebc:	01006c04 	movi	r4,432
 8001ec0:	01414004 	movi	r5,1280
 8001ec4:	8000efc0 	call	8000efc <UsbWrite>

}
 8001ec8:	e037883a 	mov	sp,fp
 8001ecc:	dfc00117 	ldw	ra,4(sp)
 8001ed0:	df000017 	ldw	fp,0(sp)
 8001ed4:	dec00204 	addi	sp,sp,8
 8001ed8:	f800283a 	ret

08001edc <UsbWaitTDListDone>:


alt_u16 UsbWaitTDListDone()
{
 8001edc:	defffd04 	addi	sp,sp,-12
 8001ee0:	dfc00215 	stw	ra,8(sp)
 8001ee4:	df000115 	stw	fp,4(sp)
 8001ee8:	df000104 	addi	fp,sp,4
	alt_u16 usb_ctl_val;

	usb_ctl_val = UsbRead(HPI_SIE1_MSG_ADR); // STEP 3 j
 8001eec:	01005104 	movi	r4,324
 8001ef0:	8000f440 	call	8000f44 <UsbRead>
 8001ef4:	e0bfff0d 	sth	r2,-4(fp)
	UsbWrite(HPI_SIE1_MSG_ADR, 0);
 8001ef8:	01005104 	movi	r4,324
 8001efc:	000b883a 	mov	r5,zero
 8001f00:	8000efc0 	call	8000efc <UsbWrite>
	while (usb_ctl_val != HUSB_TDListDone)  // k, read sie1 msg register
 8001f04:	00000d06 	br	8001f3c <UsbWaitTDListDone+0x60>
	{
		if(usb_ctl_val == 0x0000)
 8001f08:	e0bfff0b 	ldhu	r2,-4(fp)
 8001f0c:	10000526 	beq	r2,zero,8001f24 <UsbWaitTDListDone+0x48>
		{
		}
		else
		{
			printf("[SIE1 MSG]:SIE1 msg reg is %x\n",usb_ctl_val);
 8001f10:	e0bfff0b 	ldhu	r2,-4(fp)
 8001f14:	01020074 	movhi	r4,2049
 8001f18:	2139ac04 	addi	r4,r4,-6480
 8001f1c:	100b883a 	mov	r5,r2
 8001f20:	80020900 	call	8002090 <printf>
		}
		usb_ctl_val = UsbRead(HPI_SIE1_MSG_ADR);
 8001f24:	01005104 	movi	r4,324
 8001f28:	8000f440 	call	8000f44 <UsbRead>
 8001f2c:	e0bfff0d 	sth	r2,-4(fp)
		UsbWrite(HPI_SIE1_MSG_ADR, 0);
 8001f30:	01005104 	movi	r4,324
 8001f34:	000b883a 	mov	r5,zero
 8001f38:	8000efc0 	call	8000efc <UsbWrite>
{
	alt_u16 usb_ctl_val;

	usb_ctl_val = UsbRead(HPI_SIE1_MSG_ADR); // STEP 3 j
	UsbWrite(HPI_SIE1_MSG_ADR, 0);
	while (usb_ctl_val != HUSB_TDListDone)  // k, read sie1 msg register
 8001f3c:	e0bfff0b 	ldhu	r2,-4(fp)
 8001f40:	10840018 	cmpnei	r2,r2,4096
 8001f44:	103ff01e 	bne	r2,zero,8001f08 <__alt_data_end+0xf8001f08>
		}
		usb_ctl_val = UsbRead(HPI_SIE1_MSG_ADR);
		UsbWrite(HPI_SIE1_MSG_ADR, 0);
	}

	return usb_ctl_val;
 8001f48:	e0bfff0b 	ldhu	r2,-4(fp)
}
 8001f4c:	e037883a 	mov	sp,fp
 8001f50:	dfc00117 	ldw	ra,4(sp)
 8001f54:	df000017 	ldw	fp,0(sp)
 8001f58:	dec00204 	addi	sp,sp,8
 8001f5c:	f800283a 	ret

08001f60 <UsbGetRetryCnt>:


alt_u16 UsbGetRetryCnt()
{
 8001f60:	defffd04 	addi	sp,sp,-12
 8001f64:	dfc00215 	stw	ra,8(sp)
 8001f68:	df000115 	stw	fp,4(sp)
 8001f6c:	df000104 	addi	fp,sp,4
	alt_u16 usb_ctl_val;

	IORD(CY7C67200_BASE,HPI_STATUS);
 8001f70:	00840034 	movhi	r2,4096
 8001f74:	10800304 	addi	r2,r2,12
 8001f78:	10800037 	ldwio	r2,0(r2)
	if(UsbRead(HPI_SIE1_MSG_ADR) == HUSB_TDListDone)
 8001f7c:	01005104 	movi	r4,324
 8001f80:	8000f440 	call	8000f44 <UsbRead>
 8001f84:	10bfffcc 	andi	r2,r2,65535
 8001f88:	10840018 	cmpnei	r2,r2,4096
 8001f8c:	1000091e 	bne	r2,zero,8001fb4 <UsbGetRetryCnt+0x54>
	{
		UsbWrite(HPI_SIE1_MSG_ADR, 0);
 8001f90:	01005104 	movi	r4,324
 8001f94:	000b883a 	mov	r5,zero
 8001f98:	8000efc0 	call	8000efc <UsbWrite>

		while (!(IORD(CY7C67200_BASE,HPI_STATUS) & HPI_STATUS_SIE1msg_FLAG) )  //read sie1 msg register
 8001f9c:	0001883a 	nop
 8001fa0:	00840034 	movhi	r2,4096
 8001fa4:	10800304 	addi	r2,r2,12
 8001fa8:	10800037 	ldwio	r2,0(r2)
 8001fac:	1080040c 	andi	r2,r2,16
 8001fb0:	103ffb26 	beq	r2,zero,8001fa0 <__alt_data_end+0xf8001fa0>
		{
		}
	}
	//usleep(1000);
	IOWR(CY7C67200_BASE,HPI_ADDR,0x0508);
 8001fb4:	00c14204 	movi	r3,1288
 8001fb8:	00840034 	movhi	r2,4096
 8001fbc:	10800204 	addi	r2,r2,8
 8001fc0:	10c00035 	stwio	r3,0(r2)
	usb_ctl_val = IORD(CY7C67200_BASE,HPI_DATA);
 8001fc4:	00840034 	movhi	r2,4096
 8001fc8:	10800037 	ldwio	r2,0(r2)
 8001fcc:	e0bfff0d 	sth	r2,-4(fp)

	return usb_ctl_val;
 8001fd0:	e0bfff0b 	ldhu	r2,-4(fp)
}
 8001fd4:	e037883a 	mov	sp,fp
 8001fd8:	dfc00117 	ldw	ra,4(sp)
 8001fdc:	df000017 	ldw	fp,0(sp)
 8001fe0:	dec00204 	addi	sp,sp,8
 8001fe4:	f800283a 	ret

08001fe8 <UsbPrintMem>:


void UsbPrintMem()
{
 8001fe8:	defffc04 	addi	sp,sp,-16
 8001fec:	dfc00315 	stw	ra,12(sp)
 8001ff0:	df000215 	stw	fp,8(sp)
 8001ff4:	df000204 	addi	fp,sp,8
	int i, code;
	IOWR(CY7C67200_BASE,HPI_ADDR,0x0500); //the start address
 8001ff8:	00c14004 	movi	r3,1280
 8001ffc:	00840034 	movhi	r2,4096
 8002000:	10800204 	addi	r2,r2,8
 8002004:	10c00035 	stwio	r3,0(r2)
	for (i = 0; i <= 200; i += 2)
 8002008:	e03ffe15 	stw	zero,-8(fp)
 800200c:	00000d06 	br	8002044 <UsbPrintMem+0x5c>
	{
		code = IORD(CY7C67200_BASE,HPI_DATA);
 8002010:	00840034 	movhi	r2,4096
 8002014:	10800037 	ldwio	r2,0(r2)
 8002018:	e0bfff15 	stw	r2,-4(fp)
		printf("\naddr %x = %04x\n", 0x0500+i, code);
 800201c:	e0bffe17 	ldw	r2,-8(fp)
 8002020:	10814004 	addi	r2,r2,1280
 8002024:	01020074 	movhi	r4,2049
 8002028:	2139b404 	addi	r4,r4,-6448
 800202c:	100b883a 	mov	r5,r2
 8002030:	e1bfff17 	ldw	r6,-4(fp)
 8002034:	80020900 	call	8002090 <printf>

void UsbPrintMem()
{
	int i, code;
	IOWR(CY7C67200_BASE,HPI_ADDR,0x0500); //the start address
	for (i = 0; i <= 200; i += 2)
 8002038:	e0bffe17 	ldw	r2,-8(fp)
 800203c:	10800084 	addi	r2,r2,2
 8002040:	e0bffe15 	stw	r2,-8(fp)
 8002044:	e0bffe17 	ldw	r2,-8(fp)
 8002048:	10803250 	cmplti	r2,r2,201
 800204c:	103ff01e 	bne	r2,zero,8002010 <__alt_data_end+0xf8002010>
	{
		code = IORD(CY7C67200_BASE,HPI_DATA);
		printf("\naddr %x = %04x\n", 0x0500+i, code);
	}
}
 8002050:	e037883a 	mov	sp,fp
 8002054:	dfc00117 	ldw	ra,4(sp)
 8002058:	df000017 	ldw	fp,0(sp)
 800205c:	dec00204 	addi	sp,sp,8
 8002060:	f800283a 	ret

08002064 <_printf_r>:
 8002064:	defffd04 	addi	sp,sp,-12
 8002068:	dfc00015 	stw	ra,0(sp)
 800206c:	d9800115 	stw	r6,4(sp)
 8002070:	d9c00215 	stw	r7,8(sp)
 8002074:	280d883a 	mov	r6,r5
 8002078:	21400217 	ldw	r5,8(r4)
 800207c:	d9c00104 	addi	r7,sp,4
 8002080:	80022240 	call	8002224 <___vfprintf_internal_r>
 8002084:	dfc00017 	ldw	ra,0(sp)
 8002088:	dec00304 	addi	sp,sp,12
 800208c:	f800283a 	ret

08002090 <printf>:
 8002090:	defffc04 	addi	sp,sp,-16
 8002094:	dfc00015 	stw	ra,0(sp)
 8002098:	d9400115 	stw	r5,4(sp)
 800209c:	d9800215 	stw	r6,8(sp)
 80020a0:	d9c00315 	stw	r7,12(sp)
 80020a4:	00820074 	movhi	r2,2049
 80020a8:	10810904 	addi	r2,r2,1060
 80020ac:	10800017 	ldw	r2,0(r2)
 80020b0:	200b883a 	mov	r5,r4
 80020b4:	d9800104 	addi	r6,sp,4
 80020b8:	11000217 	ldw	r4,8(r2)
 80020bc:	80040a00 	call	80040a0 <__vfprintf_internal>
 80020c0:	dfc00017 	ldw	ra,0(sp)
 80020c4:	dec00404 	addi	sp,sp,16
 80020c8:	f800283a 	ret

080020cc <_puts_r>:
 80020cc:	defff604 	addi	sp,sp,-40
 80020d0:	dc400815 	stw	r17,32(sp)
 80020d4:	2023883a 	mov	r17,r4
 80020d8:	2809883a 	mov	r4,r5
 80020dc:	dc000715 	stw	r16,28(sp)
 80020e0:	dfc00915 	stw	ra,36(sp)
 80020e4:	2821883a 	mov	r16,r5
 80020e8:	80021640 	call	8002164 <strlen>
 80020ec:	10c00044 	addi	r3,r2,1
 80020f0:	d8800115 	stw	r2,4(sp)
 80020f4:	89400217 	ldw	r5,8(r17)
 80020f8:	00820074 	movhi	r2,2049
 80020fc:	10b9b904 	addi	r2,r2,-6428
 8002100:	d8800215 	stw	r2,8(sp)
 8002104:	00800044 	movi	r2,1
 8002108:	d8800315 	stw	r2,12(sp)
 800210c:	8809883a 	mov	r4,r17
 8002110:	00800084 	movi	r2,2
 8002114:	d9800404 	addi	r6,sp,16
 8002118:	dc000015 	stw	r16,0(sp)
 800211c:	d8c00615 	stw	r3,24(sp)
 8002120:	dec00415 	stw	sp,16(sp)
 8002124:	d8800515 	stw	r2,20(sp)
 8002128:	80063a00 	call	80063a0 <__sfvwrite_r>
 800212c:	1000061e 	bne	r2,zero,8002148 <_puts_r+0x7c>
 8002130:	00800284 	movi	r2,10
 8002134:	dfc00917 	ldw	ra,36(sp)
 8002138:	dc400817 	ldw	r17,32(sp)
 800213c:	dc000717 	ldw	r16,28(sp)
 8002140:	dec00a04 	addi	sp,sp,40
 8002144:	f800283a 	ret
 8002148:	00bfffc4 	movi	r2,-1
 800214c:	003ff906 	br	8002134 <__alt_data_end+0xf8002134>

08002150 <puts>:
 8002150:	00820074 	movhi	r2,2049
 8002154:	10810904 	addi	r2,r2,1060
 8002158:	200b883a 	mov	r5,r4
 800215c:	11000017 	ldw	r4,0(r2)
 8002160:	80020cc1 	jmpi	80020cc <_puts_r>

08002164 <strlen>:
 8002164:	208000cc 	andi	r2,r4,3
 8002168:	10001f1e 	bne	r2,zero,80021e8 <strlen+0x84>
 800216c:	20800017 	ldw	r2,0(r4)
 8002170:	01ffbff4 	movhi	r7,65279
 8002174:	39ffbfc4 	addi	r7,r7,-257
 8002178:	01a02074 	movhi	r6,32897
 800217c:	31a02004 	addi	r6,r6,-32640
 8002180:	11c7883a 	add	r3,r2,r7
 8002184:	0084303a 	nor	r2,zero,r2
 8002188:	1886703a 	and	r3,r3,r2
 800218c:	1986703a 	and	r3,r3,r6
 8002190:	2005883a 	mov	r2,r4
 8002194:	1800101e 	bne	r3,zero,80021d8 <strlen+0x74>
 8002198:	10800104 	addi	r2,r2,4
 800219c:	10c00017 	ldw	r3,0(r2)
 80021a0:	19cb883a 	add	r5,r3,r7
 80021a4:	00c6303a 	nor	r3,zero,r3
 80021a8:	28c6703a 	and	r3,r5,r3
 80021ac:	1986703a 	and	r3,r3,r6
 80021b0:	1800091e 	bne	r3,zero,80021d8 <strlen+0x74>
 80021b4:	10800104 	addi	r2,r2,4
 80021b8:	10c00017 	ldw	r3,0(r2)
 80021bc:	19cb883a 	add	r5,r3,r7
 80021c0:	00c6303a 	nor	r3,zero,r3
 80021c4:	28c6703a 	and	r3,r5,r3
 80021c8:	1986703a 	and	r3,r3,r6
 80021cc:	183ff226 	beq	r3,zero,8002198 <__alt_data_end+0xf8002198>
 80021d0:	00000106 	br	80021d8 <strlen+0x74>
 80021d4:	10800044 	addi	r2,r2,1
 80021d8:	10c00007 	ldb	r3,0(r2)
 80021dc:	183ffd1e 	bne	r3,zero,80021d4 <__alt_data_end+0xf80021d4>
 80021e0:	1105c83a 	sub	r2,r2,r4
 80021e4:	f800283a 	ret
 80021e8:	2005883a 	mov	r2,r4
 80021ec:	003ffa06 	br	80021d8 <__alt_data_end+0xf80021d8>

080021f0 <__sprint_r>:
 80021f0:	30800217 	ldw	r2,8(r6)
 80021f4:	defffe04 	addi	sp,sp,-8
 80021f8:	dc000015 	stw	r16,0(sp)
 80021fc:	dfc00115 	stw	ra,4(sp)
 8002200:	3021883a 	mov	r16,r6
 8002204:	10000226 	beq	r2,zero,8002210 <__sprint_r+0x20>
 8002208:	80063a00 	call	80063a0 <__sfvwrite_r>
 800220c:	80000215 	stw	zero,8(r16)
 8002210:	80000115 	stw	zero,4(r16)
 8002214:	dfc00117 	ldw	ra,4(sp)
 8002218:	dc000017 	ldw	r16,0(sp)
 800221c:	dec00204 	addi	sp,sp,8
 8002220:	f800283a 	ret

08002224 <___vfprintf_internal_r>:
 8002224:	defeb904 	addi	sp,sp,-1308
 8002228:	dc013d15 	stw	r16,1268(sp)
 800222c:	d9013015 	stw	r4,1216(sp)
 8002230:	dfc14615 	stw	ra,1304(sp)
 8002234:	df014515 	stw	fp,1300(sp)
 8002238:	ddc14415 	stw	r23,1296(sp)
 800223c:	dd814315 	stw	r22,1292(sp)
 8002240:	dd414215 	stw	r21,1288(sp)
 8002244:	dd014115 	stw	r20,1284(sp)
 8002248:	dcc14015 	stw	r19,1280(sp)
 800224c:	dc813f15 	stw	r18,1276(sp)
 8002250:	dc413e15 	stw	r17,1272(sp)
 8002254:	d9412915 	stw	r5,1188(sp)
 8002258:	3021883a 	mov	r16,r6
 800225c:	d9c12d15 	stw	r7,1204(sp)
 8002260:	8006a8c0 	call	8006a8c <_localeconv_r>
 8002264:	10800017 	ldw	r2,0(r2)
 8002268:	d9013017 	ldw	r4,1216(sp)
 800226c:	d8013315 	stw	zero,1228(sp)
 8002270:	d8813715 	stw	r2,1244(sp)
 8002274:	d8013415 	stw	zero,1232(sp)
 8002278:	20000226 	beq	r4,zero,8002284 <___vfprintf_internal_r+0x60>
 800227c:	20800e17 	ldw	r2,56(r4)
 8002280:	10014b26 	beq	r2,zero,80027b0 <___vfprintf_internal_r+0x58c>
 8002284:	d8c12917 	ldw	r3,1188(sp)
 8002288:	1880030b 	ldhu	r2,12(r3)
 800228c:	10c0020c 	andi	r3,r2,8
 8002290:	18ffffcc 	andi	r3,r3,65535
 8002294:	18e0001c 	xori	r3,r3,32768
 8002298:	18e00004 	addi	r3,r3,-32768
 800229c:	1800ed26 	beq	r3,zero,8002654 <___vfprintf_internal_r+0x430>
 80022a0:	d9012917 	ldw	r4,1188(sp)
 80022a4:	20c00417 	ldw	r3,16(r4)
 80022a8:	1800ea26 	beq	r3,zero,8002654 <___vfprintf_internal_r+0x430>
 80022ac:	1100068c 	andi	r4,r2,26
 80022b0:	00c00284 	movi	r3,10
 80022b4:	20c0f026 	beq	r4,r3,8002678 <___vfprintf_internal_r+0x454>
 80022b8:	d9010dc4 	addi	r4,sp,1079
 80022bc:	d8810e04 	addi	r2,sp,1080
 80022c0:	dc413017 	ldw	r17,1216(sp)
 80022c4:	d8c00404 	addi	r3,sp,16
 80022c8:	d9012615 	stw	r4,1176(sp)
 80022cc:	1109c83a 	sub	r4,r2,r4
 80022d0:	d8812715 	stw	r2,1180(sp)
 80022d4:	d8c11b15 	stw	r3,1132(sp)
 80022d8:	d8011d15 	stw	zero,1140(sp)
 80022dc:	d8011c15 	stw	zero,1136(sp)
 80022e0:	802b883a 	mov	r21,r16
 80022e4:	d8013215 	stw	zero,1224(sp)
 80022e8:	d8013615 	stw	zero,1240(sp)
 80022ec:	d8013515 	stw	zero,1236(sp)
 80022f0:	d8012c15 	stw	zero,1200(sp)
 80022f4:	1813883a 	mov	r9,r3
 80022f8:	d9013915 	stw	r4,1252(sp)
 80022fc:	a8800007 	ldb	r2,0(r21)
 8002300:	1002f326 	beq	r2,zero,8002ed0 <___vfprintf_internal_r+0xcac>
 8002304:	00c00944 	movi	r3,37
 8002308:	a825883a 	mov	r18,r21
 800230c:	10c0021e 	bne	r2,r3,8002318 <___vfprintf_internal_r+0xf4>
 8002310:	00001406 	br	8002364 <___vfprintf_internal_r+0x140>
 8002314:	10c00326 	beq	r2,r3,8002324 <___vfprintf_internal_r+0x100>
 8002318:	94800044 	addi	r18,r18,1
 800231c:	90800007 	ldb	r2,0(r18)
 8002320:	103ffc1e 	bne	r2,zero,8002314 <__alt_data_end+0xf8002314>
 8002324:	9561c83a 	sub	r16,r18,r21
 8002328:	80000e26 	beq	r16,zero,8002364 <___vfprintf_internal_r+0x140>
 800232c:	da011d17 	ldw	r8,1140(sp)
 8002330:	d8c11c17 	ldw	r3,1136(sp)
 8002334:	4d400015 	stw	r21,0(r9)
 8002338:	4c000115 	stw	r16,4(r9)
 800233c:	4411883a 	add	r8,r8,r16
 8002340:	18c00044 	addi	r3,r3,1
 8002344:	da011d15 	stw	r8,1140(sp)
 8002348:	d8c11c15 	stw	r3,1136(sp)
 800234c:	008001c4 	movi	r2,7
 8002350:	10c11016 	blt	r2,r3,8002794 <___vfprintf_internal_r+0x570>
 8002354:	4a400204 	addi	r9,r9,8
 8002358:	d8812c17 	ldw	r2,1200(sp)
 800235c:	1405883a 	add	r2,r2,r16
 8002360:	d8812c15 	stw	r2,1200(sp)
 8002364:	90800007 	ldb	r2,0(r18)
 8002368:	1000ee26 	beq	r2,zero,8002724 <___vfprintf_internal_r+0x500>
 800236c:	95400044 	addi	r21,r18,1
 8002370:	94800047 	ldb	r18,1(r18)
 8002374:	073fffc4 	movi	fp,-1
 8002378:	e007883a 	mov	r3,fp
 800237c:	d8012585 	stb	zero,1174(sp)
 8002380:	d8012e15 	stw	zero,1208(sp)
 8002384:	0021883a 	mov	r16,zero
 8002388:	05001604 	movi	r20,88
 800238c:	04c00244 	movi	r19,9
 8002390:	4839883a 	mov	fp,r9
 8002394:	ad400044 	addi	r21,r21,1
 8002398:	90bff804 	addi	r2,r18,-32
 800239c:	a080462e 	bgeu	r20,r2,80024b8 <___vfprintf_internal_r+0x294>
 80023a0:	e013883a 	mov	r9,fp
 80023a4:	9000df26 	beq	r18,zero,8002724 <___vfprintf_internal_r+0x500>
 80023a8:	00c00044 	movi	r3,1
 80023ac:	d8c12815 	stw	r3,1184(sp)
 80023b0:	dc810405 	stb	r18,1040(sp)
 80023b4:	d8012585 	stb	zero,1174(sp)
 80023b8:	d8c12b15 	stw	r3,1196(sp)
 80023bc:	dcc10404 	addi	r19,sp,1040
 80023c0:	d8013115 	stw	zero,1220(sp)
 80023c4:	80c0008c 	andi	r3,r16,2
 80023c8:	d8c12a15 	stw	r3,1192(sp)
 80023cc:	18000326 	beq	r3,zero,80023dc <___vfprintf_internal_r+0x1b8>
 80023d0:	d8c12817 	ldw	r3,1184(sp)
 80023d4:	18c00084 	addi	r3,r3,2
 80023d8:	d8c12815 	stw	r3,1184(sp)
 80023dc:	80c0210c 	andi	r3,r16,132
 80023e0:	d8c12f15 	stw	r3,1212(sp)
 80023e4:	1802251e 	bne	r3,zero,8002c7c <___vfprintf_internal_r+0xa58>
 80023e8:	d9012e17 	ldw	r4,1208(sp)
 80023ec:	d8c12817 	ldw	r3,1184(sp)
 80023f0:	20edc83a 	sub	r22,r4,r3
 80023f4:	0582210e 	bge	zero,r22,8002c7c <___vfprintf_internal_r+0xa58>
 80023f8:	02800404 	movi	r10,16
 80023fc:	da011d17 	ldw	r8,1140(sp)
 8002400:	d8c11c17 	ldw	r3,1136(sp)
 8002404:	05c20074 	movhi	r23,2049
 8002408:	bdf9ca84 	addi	r23,r23,-6358
 800240c:	5580200e 	bge	r10,r22,8002490 <___vfprintf_internal_r+0x26c>
 8002410:	dc813815 	stw	r18,1248(sp)
 8002414:	5039883a 	mov	fp,r10
 8002418:	b825883a 	mov	r18,r23
 800241c:	050001c4 	movi	r20,7
 8002420:	b02f883a 	mov	r23,r22
 8002424:	802d883a 	mov	r22,r16
 8002428:	dc012917 	ldw	r16,1188(sp)
 800242c:	00000306 	br	800243c <___vfprintf_internal_r+0x218>
 8002430:	bdfffc04 	addi	r23,r23,-16
 8002434:	4a400204 	addi	r9,r9,8
 8002438:	e5c0110e 	bge	fp,r23,8002480 <___vfprintf_internal_r+0x25c>
 800243c:	4c800015 	stw	r18,0(r9)
 8002440:	4f000115 	stw	fp,4(r9)
 8002444:	42000404 	addi	r8,r8,16
 8002448:	18c00044 	addi	r3,r3,1
 800244c:	da011d15 	stw	r8,1140(sp)
 8002450:	d8c11c15 	stw	r3,1136(sp)
 8002454:	a0fff60e 	bge	r20,r3,8002430 <__alt_data_end+0xf8002430>
 8002458:	8809883a 	mov	r4,r17
 800245c:	800b883a 	mov	r5,r16
 8002460:	d9811b04 	addi	r6,sp,1132
 8002464:	80021f00 	call	80021f0 <__sprint_r>
 8002468:	1000b41e 	bne	r2,zero,800273c <___vfprintf_internal_r+0x518>
 800246c:	bdfffc04 	addi	r23,r23,-16
 8002470:	da011d17 	ldw	r8,1140(sp)
 8002474:	d8c11c17 	ldw	r3,1136(sp)
 8002478:	da400404 	addi	r9,sp,16
 800247c:	e5ffef16 	blt	fp,r23,800243c <__alt_data_end+0xf800243c>
 8002480:	b021883a 	mov	r16,r22
 8002484:	b82d883a 	mov	r22,r23
 8002488:	902f883a 	mov	r23,r18
 800248c:	dc813817 	ldw	r18,1248(sp)
 8002490:	4dc00015 	stw	r23,0(r9)
 8002494:	4d800115 	stw	r22,4(r9)
 8002498:	4591883a 	add	r8,r8,r22
 800249c:	18c00044 	addi	r3,r3,1
 80024a0:	da011d15 	stw	r8,1140(sp)
 80024a4:	d8c11c15 	stw	r3,1136(sp)
 80024a8:	008001c4 	movi	r2,7
 80024ac:	10c3fe16 	blt	r2,r3,80034a8 <___vfprintf_internal_r+0x1284>
 80024b0:	4a400204 	addi	r9,r9,8
 80024b4:	0001f306 	br	8002c84 <___vfprintf_internal_r+0xa60>
 80024b8:	1085883a 	add	r2,r2,r2
 80024bc:	1085883a 	add	r2,r2,r2
 80024c0:	01020034 	movhi	r4,2048
 80024c4:	21093504 	addi	r4,r4,9428
 80024c8:	1105883a 	add	r2,r2,r4
 80024cc:	10800017 	ldw	r2,0(r2)
 80024d0:	1000683a 	jmp	r2
 80024d4:	08002bb0 	cmpltui	zero,at,174
 80024d8:	080023a0 	cmpeqi	zero,at,142
 80024dc:	080023a0 	cmpeqi	zero,at,142
 80024e0:	08002bc8 	cmpgei	zero,at,175
 80024e4:	080023a0 	cmpeqi	zero,at,142
 80024e8:	080023a0 	cmpeqi	zero,at,142
 80024ec:	080023a0 	cmpeqi	zero,at,142
 80024f0:	080023a0 	cmpeqi	zero,at,142
 80024f4:	080023a0 	cmpeqi	zero,at,142
 80024f8:	080023a0 	cmpeqi	zero,at,142
 80024fc:	08002a80 	call	8002a8 <__alt_mem_sdram-0x77ffd58>
 8002500:	08002c14 	ori	zero,at,176
 8002504:	080023a0 	cmpeqi	zero,at,142
 8002508:	08002648 	cmpgei	zero,at,153
 800250c:	080029e8 	cmpgeui	zero,at,167
 8002510:	080023a0 	cmpeqi	zero,at,142
 8002514:	08002bd4 	ori	zero,at,175
 8002518:	08002be0 	cmpeqi	zero,at,175
 800251c:	08002be0 	cmpeqi	zero,at,175
 8002520:	08002be0 	cmpeqi	zero,at,175
 8002524:	08002be0 	cmpeqi	zero,at,175
 8002528:	08002be0 	cmpeqi	zero,at,175
 800252c:	08002be0 	cmpeqi	zero,at,175
 8002530:	08002be0 	cmpeqi	zero,at,175
 8002534:	08002be0 	cmpeqi	zero,at,175
 8002538:	08002be0 	cmpeqi	zero,at,175
 800253c:	080023a0 	cmpeqi	zero,at,142
 8002540:	080023a0 	cmpeqi	zero,at,142
 8002544:	080023a0 	cmpeqi	zero,at,142
 8002548:	080023a0 	cmpeqi	zero,at,142
 800254c:	080023a0 	cmpeqi	zero,at,142
 8002550:	080023a0 	cmpeqi	zero,at,142
 8002554:	080023a0 	cmpeqi	zero,at,142
 8002558:	080023a0 	cmpeqi	zero,at,142
 800255c:	080023a0 	cmpeqi	zero,at,142
 8002560:	080023a0 	cmpeqi	zero,at,142
 8002564:	080027b8 	rdprs	zero,at,158
 8002568:	08002878 	rdprs	zero,at,161
 800256c:	080023a0 	cmpeqi	zero,at,142
 8002570:	08002878 	rdprs	zero,at,161
 8002574:	080023a0 	cmpeqi	zero,at,142
 8002578:	080023a0 	cmpeqi	zero,at,142
 800257c:	080023a0 	cmpeqi	zero,at,142
 8002580:	080023a0 	cmpeqi	zero,at,142
 8002584:	0800290c 	andi	zero,at,164
 8002588:	080023a0 	cmpeqi	zero,at,142
 800258c:	080023a0 	cmpeqi	zero,at,142
 8002590:	08002918 	cmpnei	zero,at,164
 8002594:	080023a0 	cmpeqi	zero,at,142
 8002598:	080023a0 	cmpeqi	zero,at,142
 800259c:	080023a0 	cmpeqi	zero,at,142
 80025a0:	080023a0 	cmpeqi	zero,at,142
 80025a4:	080023a0 	cmpeqi	zero,at,142
 80025a8:	08002950 	cmplti	zero,at,165
 80025ac:	080023a0 	cmpeqi	zero,at,142
 80025b0:	080023a0 	cmpeqi	zero,at,142
 80025b4:	0800298c 	andi	zero,at,166
 80025b8:	080023a0 	cmpeqi	zero,at,142
 80025bc:	080023a0 	cmpeqi	zero,at,142
 80025c0:	080023a0 	cmpeqi	zero,at,142
 80025c4:	080023a0 	cmpeqi	zero,at,142
 80025c8:	080023a0 	cmpeqi	zero,at,142
 80025cc:	080023a0 	cmpeqi	zero,at,142
 80025d0:	080023a0 	cmpeqi	zero,at,142
 80025d4:	080023a0 	cmpeqi	zero,at,142
 80025d8:	080023a0 	cmpeqi	zero,at,142
 80025dc:	080023a0 	cmpeqi	zero,at,142
 80025e0:	08002c24 	muli	zero,at,176
 80025e4:	08002c58 	cmpnei	zero,at,177
 80025e8:	08002878 	rdprs	zero,at,161
 80025ec:	08002878 	rdprs	zero,at,161
 80025f0:	08002878 	rdprs	zero,at,161
 80025f4:	08002ba4 	muli	zero,at,174
 80025f8:	08002c58 	cmpnei	zero,at,177
 80025fc:	080023a0 	cmpeqi	zero,at,142
 8002600:	080023a0 	cmpeqi	zero,at,142
 8002604:	08002a30 	cmpltui	zero,at,168
 8002608:	080023a0 	cmpeqi	zero,at,142
 800260c:	08002a48 	cmpgei	zero,at,169
 8002610:	08002c64 	muli	zero,at,177
 8002614:	08002aa8 	cmpgeui	zero,at,170
 8002618:	08002af8 	rdprs	zero,at,171
 800261c:	080023a0 	cmpeqi	zero,at,142
 8002620:	08002b04 	addi	zero,at,172
 8002624:	080023a0 	cmpeqi	zero,at,142
 8002628:	08002c70 	cmpltui	zero,at,177
 800262c:	080023a0 	cmpeqi	zero,at,142
 8002630:	080023a0 	cmpeqi	zero,at,142
 8002634:	08002b68 	cmpgeui	zero,at,173
 8002638:	d9012e17 	ldw	r4,1208(sp)
 800263c:	d8812d15 	stw	r2,1204(sp)
 8002640:	0109c83a 	sub	r4,zero,r4
 8002644:	d9012e15 	stw	r4,1208(sp)
 8002648:	84000114 	ori	r16,r16,4
 800264c:	ac800007 	ldb	r18,0(r21)
 8002650:	003f5006 	br	8002394 <__alt_data_end+0xf8002394>
 8002654:	d9013017 	ldw	r4,1216(sp)
 8002658:	d9412917 	ldw	r5,1188(sp)
 800265c:	80040c40 	call	80040c4 <__swsetup_r>
 8002660:	10003d1e 	bne	r2,zero,8002758 <___vfprintf_internal_r+0x534>
 8002664:	d8c12917 	ldw	r3,1188(sp)
 8002668:	1880030b 	ldhu	r2,12(r3)
 800266c:	00c00284 	movi	r3,10
 8002670:	1100068c 	andi	r4,r2,26
 8002674:	20ff101e 	bne	r4,r3,80022b8 <__alt_data_end+0xf80022b8>
 8002678:	d9012917 	ldw	r4,1188(sp)
 800267c:	20c0038b 	ldhu	r3,14(r4)
 8002680:	193fffcc 	andi	r4,r3,65535
 8002684:	2120001c 	xori	r4,r4,32768
 8002688:	21200004 	addi	r4,r4,-32768
 800268c:	203f0a16 	blt	r4,zero,80022b8 <__alt_data_end+0xf80022b8>
 8002690:	d9012917 	ldw	r4,1188(sp)
 8002694:	d9c12d17 	ldw	r7,1204(sp)
 8002698:	10bfff4c 	andi	r2,r2,65533
 800269c:	22800717 	ldw	r10,28(r4)
 80026a0:	22400917 	ldw	r9,36(r4)
 80026a4:	d9013017 	ldw	r4,1216(sp)
 80026a8:	02010004 	movi	r8,1024
 80026ac:	d881070d 	sth	r2,1052(sp)
 80026b0:	d9410404 	addi	r5,sp,1040
 80026b4:	d8800404 	addi	r2,sp,16
 80026b8:	800d883a 	mov	r6,r16
 80026bc:	d8c1078d 	sth	r3,1054(sp)
 80026c0:	da810b15 	stw	r10,1068(sp)
 80026c4:	da410d15 	stw	r9,1076(sp)
 80026c8:	d8810415 	stw	r2,1040(sp)
 80026cc:	d8810815 	stw	r2,1056(sp)
 80026d0:	da010615 	stw	r8,1048(sp)
 80026d4:	da010915 	stw	r8,1060(sp)
 80026d8:	d8010a15 	stw	zero,1064(sp)
 80026dc:	80022240 	call	8002224 <___vfprintf_internal_r>
 80026e0:	d8812c15 	stw	r2,1200(sp)
 80026e4:	10000416 	blt	r2,zero,80026f8 <___vfprintf_internal_r+0x4d4>
 80026e8:	d9013017 	ldw	r4,1216(sp)
 80026ec:	d9410404 	addi	r5,sp,1040
 80026f0:	8005a900 	call	8005a90 <_fflush_r>
 80026f4:	1006501e 	bne	r2,zero,8004038 <___vfprintf_internal_r+0x1e14>
 80026f8:	d881070b 	ldhu	r2,1052(sp)
 80026fc:	1080100c 	andi	r2,r2,64
 8002700:	10bfffcc 	andi	r2,r2,65535
 8002704:	10a0001c 	xori	r2,r2,32768
 8002708:	10a00004 	addi	r2,r2,-32768
 800270c:	10001426 	beq	r2,zero,8002760 <___vfprintf_internal_r+0x53c>
 8002710:	d8c12917 	ldw	r3,1188(sp)
 8002714:	1880030b 	ldhu	r2,12(r3)
 8002718:	10801014 	ori	r2,r2,64
 800271c:	1880030d 	sth	r2,12(r3)
 8002720:	00000f06 	br	8002760 <___vfprintf_internal_r+0x53c>
 8002724:	d8811d17 	ldw	r2,1140(sp)
 8002728:	10000426 	beq	r2,zero,800273c <___vfprintf_internal_r+0x518>
 800272c:	d9013017 	ldw	r4,1216(sp)
 8002730:	d9412917 	ldw	r5,1188(sp)
 8002734:	d9811b04 	addi	r6,sp,1132
 8002738:	80021f00 	call	80021f0 <__sprint_r>
 800273c:	d8c12917 	ldw	r3,1188(sp)
 8002740:	1880030b 	ldhu	r2,12(r3)
 8002744:	1080100c 	andi	r2,r2,64
 8002748:	10bfffcc 	andi	r2,r2,65535
 800274c:	10a0001c 	xori	r2,r2,32768
 8002750:	10a00004 	addi	r2,r2,-32768
 8002754:	10000226 	beq	r2,zero,8002760 <___vfprintf_internal_r+0x53c>
 8002758:	00bfffc4 	movi	r2,-1
 800275c:	d8812c15 	stw	r2,1200(sp)
 8002760:	d8812c17 	ldw	r2,1200(sp)
 8002764:	dfc14617 	ldw	ra,1304(sp)
 8002768:	df014517 	ldw	fp,1300(sp)
 800276c:	ddc14417 	ldw	r23,1296(sp)
 8002770:	dd814317 	ldw	r22,1292(sp)
 8002774:	dd414217 	ldw	r21,1288(sp)
 8002778:	dd014117 	ldw	r20,1284(sp)
 800277c:	dcc14017 	ldw	r19,1280(sp)
 8002780:	dc813f17 	ldw	r18,1276(sp)
 8002784:	dc413e17 	ldw	r17,1272(sp)
 8002788:	dc013d17 	ldw	r16,1268(sp)
 800278c:	dec14704 	addi	sp,sp,1308
 8002790:	f800283a 	ret
 8002794:	d9412917 	ldw	r5,1188(sp)
 8002798:	8809883a 	mov	r4,r17
 800279c:	d9811b04 	addi	r6,sp,1132
 80027a0:	80021f00 	call	80021f0 <__sprint_r>
 80027a4:	103fe51e 	bne	r2,zero,800273c <__alt_data_end+0xf800273c>
 80027a8:	da400404 	addi	r9,sp,16
 80027ac:	003eea06 	br	8002358 <__alt_data_end+0xf8002358>
 80027b0:	8005d4c0 	call	8005d4c <__sinit>
 80027b4:	003eb306 	br	8002284 <__alt_data_end+0xf8002284>
 80027b8:	e013883a 	mov	r9,fp
 80027bc:	84000414 	ori	r16,r16,16
 80027c0:	1839883a 	mov	fp,r3
 80027c4:	8080080c 	andi	r2,r16,32
 80027c8:	10034426 	beq	r2,zero,80034dc <___vfprintf_internal_r+0x12b8>
 80027cc:	d8c12d17 	ldw	r3,1204(sp)
 80027d0:	18800117 	ldw	r2,4(r3)
 80027d4:	1dc00017 	ldw	r23,0(r3)
 80027d8:	18c00204 	addi	r3,r3,8
 80027dc:	d8c12d15 	stw	r3,1204(sp)
 80027e0:	102d883a 	mov	r22,r2
 80027e4:	1003020e 	bge	r2,zero,80033f0 <___vfprintf_internal_r+0x11cc>
 80027e8:	05efc83a 	sub	r23,zero,r23
 80027ec:	b804c03a 	cmpne	r2,r23,zero
 80027f0:	05adc83a 	sub	r22,zero,r22
 80027f4:	b0adc83a 	sub	r22,r22,r2
 80027f8:	00800b44 	movi	r2,45
 80027fc:	d8812585 	stb	r2,1174(sp)
 8002800:	00c00044 	movi	r3,1
 8002804:	bd84b03a 	or	r2,r23,r22
 8002808:	e0000216 	blt	fp,zero,8002814 <___vfprintf_internal_r+0x5f0>
 800280c:	013fdfc4 	movi	r4,-129
 8002810:	8120703a 	and	r16,r16,r4
 8002814:	1001cc1e 	bne	r2,zero,8002f48 <___vfprintf_internal_r+0xd24>
 8002818:	e001cb1e 	bne	fp,zero,8002f48 <___vfprintf_internal_r+0xd24>
 800281c:	18c03fcc 	andi	r3,r3,255
 8002820:	1802ca1e 	bne	r3,zero,800334c <___vfprintf_internal_r+0x1128>
 8002824:	8080004c 	andi	r2,r16,1
 8002828:	1002c826 	beq	r2,zero,800334c <___vfprintf_internal_r+0x1128>
 800282c:	d8c13917 	ldw	r3,1252(sp)
 8002830:	00800c04 	movi	r2,48
 8002834:	d8810dc5 	stb	r2,1079(sp)
 8002838:	d8c12b15 	stw	r3,1196(sp)
 800283c:	dcc10dc4 	addi	r19,sp,1079
 8002840:	d8812b17 	ldw	r2,1196(sp)
 8002844:	d8812815 	stw	r2,1184(sp)
 8002848:	1700010e 	bge	r2,fp,8002850 <___vfprintf_internal_r+0x62c>
 800284c:	df012815 	stw	fp,1184(sp)
 8002850:	d8812583 	ldbu	r2,1174(sp)
 8002854:	df013115 	stw	fp,1220(sp)
 8002858:	10803fcc 	andi	r2,r2,255
 800285c:	1080201c 	xori	r2,r2,128
 8002860:	10bfe004 	addi	r2,r2,-128
 8002864:	103ed726 	beq	r2,zero,80023c4 <__alt_data_end+0xf80023c4>
 8002868:	d8c12817 	ldw	r3,1184(sp)
 800286c:	18c00044 	addi	r3,r3,1
 8002870:	d8c12815 	stw	r3,1184(sp)
 8002874:	003ed306 	br	80023c4 <__alt_data_end+0xf80023c4>
 8002878:	8080020c 	andi	r2,r16,8
 800287c:	e013883a 	mov	r9,fp
 8002880:	1839883a 	mov	fp,r3
 8002884:	1003a626 	beq	r2,zero,8003720 <___vfprintf_internal_r+0x14fc>
 8002888:	d9012d17 	ldw	r4,1204(sp)
 800288c:	25800017 	ldw	r22,0(r4)
 8002890:	25000117 	ldw	r20,4(r4)
 8002894:	21000204 	addi	r4,r4,8
 8002898:	d9012d15 	stw	r4,1204(sp)
 800289c:	dd813315 	stw	r22,1228(sp)
 80028a0:	dd013415 	stw	r20,1232(sp)
 80028a4:	b009883a 	mov	r4,r22
 80028a8:	a00b883a 	mov	r5,r20
 80028ac:	da413c15 	stw	r9,1264(sp)
 80028b0:	8008ed80 	call	8008ed8 <__isinfd>
 80028b4:	da413c17 	ldw	r9,1264(sp)
 80028b8:	b009883a 	mov	r4,r22
 80028bc:	a00b883a 	mov	r5,r20
 80028c0:	10041d26 	beq	r2,zero,8003938 <___vfprintf_internal_r+0x1714>
 80028c4:	000d883a 	mov	r6,zero
 80028c8:	000f883a 	mov	r7,zero
 80028cc:	800acac0 	call	800acac <__ltdf2>
 80028d0:	da413c17 	ldw	r9,1264(sp)
 80028d4:	1004da16 	blt	r2,zero,8003c40 <___vfprintf_internal_r+0x1a1c>
 80028d8:	d8812583 	ldbu	r2,1174(sp)
 80028dc:	00c011c4 	movi	r3,71
 80028e0:	1c83d116 	blt	r3,r18,8003828 <___vfprintf_internal_r+0x1604>
 80028e4:	04c20074 	movhi	r19,2049
 80028e8:	9cf9ba04 	addi	r19,r19,-6424
 80028ec:	00c000c4 	movi	r3,3
 80028f0:	d8c12815 	stw	r3,1184(sp)
 80028f4:	00ffdfc4 	movi	r3,-129
 80028f8:	80e0703a 	and	r16,r16,r3
 80028fc:	d8c12817 	ldw	r3,1184(sp)
 8002900:	d8013115 	stw	zero,1220(sp)
 8002904:	d8c12b15 	stw	r3,1196(sp)
 8002908:	003fd306 	br	8002858 <__alt_data_end+0xf8002858>
 800290c:	84000214 	ori	r16,r16,8
 8002910:	ac800007 	ldb	r18,0(r21)
 8002914:	003e9f06 	br	8002394 <__alt_data_end+0xf8002394>
 8002918:	e013883a 	mov	r9,fp
 800291c:	84000414 	ori	r16,r16,16
 8002920:	1839883a 	mov	fp,r3
 8002924:	8080080c 	andi	r2,r16,32
 8002928:	10031d26 	beq	r2,zero,80035a0 <___vfprintf_internal_r+0x137c>
 800292c:	d8812d17 	ldw	r2,1204(sp)
 8002930:	0007883a 	mov	r3,zero
 8002934:	15c00017 	ldw	r23,0(r2)
 8002938:	15800117 	ldw	r22,4(r2)
 800293c:	10800204 	addi	r2,r2,8
 8002940:	d8812d15 	stw	r2,1204(sp)
 8002944:	d8012585 	stb	zero,1174(sp)
 8002948:	bd84b03a 	or	r2,r23,r22
 800294c:	003fae06 	br	8002808 <__alt_data_end+0xf8002808>
 8002950:	e013883a 	mov	r9,fp
 8002954:	84000414 	ori	r16,r16,16
 8002958:	1839883a 	mov	fp,r3
 800295c:	8080080c 	andi	r2,r16,32
 8002960:	1002e726 	beq	r2,zero,8003500 <___vfprintf_internal_r+0x12dc>
 8002964:	d8c12d17 	ldw	r3,1204(sp)
 8002968:	d9012d17 	ldw	r4,1204(sp)
 800296c:	1dc00017 	ldw	r23,0(r3)
 8002970:	1d800117 	ldw	r22,4(r3)
 8002974:	21000204 	addi	r4,r4,8
 8002978:	00c00044 	movi	r3,1
 800297c:	d9012d15 	stw	r4,1204(sp)
 8002980:	bd84b03a 	or	r2,r23,r22
 8002984:	d8012585 	stb	zero,1174(sp)
 8002988:	003f9f06 	br	8002808 <__alt_data_end+0xf8002808>
 800298c:	e013883a 	mov	r9,fp
 8002990:	1839883a 	mov	fp,r3
 8002994:	00c20074 	movhi	r3,2049
 8002998:	18f9be04 	addi	r3,r3,-6408
 800299c:	d8c13615 	stw	r3,1240(sp)
 80029a0:	8080080c 	andi	r2,r16,32
 80029a4:	10007726 	beq	r2,zero,8002b84 <___vfprintf_internal_r+0x960>
 80029a8:	d9012d17 	ldw	r4,1204(sp)
 80029ac:	25c00017 	ldw	r23,0(r4)
 80029b0:	25800117 	ldw	r22,4(r4)
 80029b4:	21000204 	addi	r4,r4,8
 80029b8:	d9012d15 	stw	r4,1204(sp)
 80029bc:	8080004c 	andi	r2,r16,1
 80029c0:	1002c226 	beq	r2,zero,80034cc <___vfprintf_internal_r+0x12a8>
 80029c4:	bd84b03a 	or	r2,r23,r22
 80029c8:	10035d26 	beq	r2,zero,8003740 <___vfprintf_internal_r+0x151c>
 80029cc:	00c00c04 	movi	r3,48
 80029d0:	d8c12505 	stb	r3,1172(sp)
 80029d4:	dc812545 	stb	r18,1173(sp)
 80029d8:	84000094 	ori	r16,r16,2
 80029dc:	00c00084 	movi	r3,2
 80029e0:	d8012585 	stb	zero,1174(sp)
 80029e4:	003f8806 	br	8002808 <__alt_data_end+0xf8002808>
 80029e8:	ac800007 	ldb	r18,0(r21)
 80029ec:	00c00a84 	movi	r3,42
 80029f0:	adc00044 	addi	r23,r21,1
 80029f4:	90c57526 	beq	r18,r3,8003fcc <___vfprintf_internal_r+0x1da8>
 80029f8:	95bff404 	addi	r22,r18,-48
 80029fc:	0009883a 	mov	r4,zero
 8002a00:	9d84ff36 	bltu	r19,r22,8003e00 <___vfprintf_internal_r+0x1bdc>
 8002a04:	01400284 	movi	r5,10
 8002a08:	800b0ec0 	call	800b0ec <__mulsi3>
 8002a0c:	bc800007 	ldb	r18,0(r23)
 8002a10:	b089883a 	add	r4,r22,r2
 8002a14:	bdc00044 	addi	r23,r23,1
 8002a18:	95bff404 	addi	r22,r18,-48
 8002a1c:	9dbff92e 	bgeu	r19,r22,8002a04 <__alt_data_end+0xf8002a04>
 8002a20:	2007883a 	mov	r3,r4
 8002a24:	20044316 	blt	r4,zero,8003b34 <___vfprintf_internal_r+0x1910>
 8002a28:	b82b883a 	mov	r21,r23
 8002a2c:	003e5a06 	br	8002398 <__alt_data_end+0xf8002398>
 8002a30:	ac800007 	ldb	r18,0(r21)
 8002a34:	01001b04 	movi	r4,108
 8002a38:	a805883a 	mov	r2,r21
 8002a3c:	91045526 	beq	r18,r4,8003b94 <___vfprintf_internal_r+0x1970>
 8002a40:	84000414 	ori	r16,r16,16
 8002a44:	003e5306 	br	8002394 <__alt_data_end+0xf8002394>
 8002a48:	8080080c 	andi	r2,r16,32
 8002a4c:	e013883a 	mov	r9,fp
 8002a50:	10034026 	beq	r2,zero,8003754 <___vfprintf_internal_r+0x1530>
 8002a54:	d9012d17 	ldw	r4,1204(sp)
 8002a58:	20800017 	ldw	r2,0(r4)
 8002a5c:	d9012c17 	ldw	r4,1200(sp)
 8002a60:	2007d7fa 	srai	r3,r4,31
 8002a64:	d9012d17 	ldw	r4,1204(sp)
 8002a68:	10c00115 	stw	r3,4(r2)
 8002a6c:	21000104 	addi	r4,r4,4
 8002a70:	d9012d15 	stw	r4,1204(sp)
 8002a74:	d9012c17 	ldw	r4,1200(sp)
 8002a78:	11000015 	stw	r4,0(r2)
 8002a7c:	003e1f06 	br	80022fc <__alt_data_end+0xf80022fc>
 8002a80:	d9012d17 	ldw	r4,1204(sp)
 8002a84:	21000017 	ldw	r4,0(r4)
 8002a88:	d9012e15 	stw	r4,1208(sp)
 8002a8c:	d9012d17 	ldw	r4,1204(sp)
 8002a90:	20800104 	addi	r2,r4,4
 8002a94:	d9012e17 	ldw	r4,1208(sp)
 8002a98:	203ee716 	blt	r4,zero,8002638 <__alt_data_end+0xf8002638>
 8002a9c:	d8812d15 	stw	r2,1204(sp)
 8002aa0:	ac800007 	ldb	r18,0(r21)
 8002aa4:	003e3b06 	br	8002394 <__alt_data_end+0xf8002394>
 8002aa8:	e013883a 	mov	r9,fp
 8002aac:	1839883a 	mov	fp,r3
 8002ab0:	d8c12d17 	ldw	r3,1204(sp)
 8002ab4:	00800c04 	movi	r2,48
 8002ab8:	01020074 	movhi	r4,2049
 8002abc:	2139c304 	addi	r4,r4,-6388
 8002ac0:	1dc00017 	ldw	r23,0(r3)
 8002ac4:	18c00104 	addi	r3,r3,4
 8002ac8:	d8812505 	stb	r2,1172(sp)
 8002acc:	00801e04 	movi	r2,120
 8002ad0:	d8812545 	stb	r2,1173(sp)
 8002ad4:	d8c12d15 	stw	r3,1204(sp)
 8002ad8:	002d883a 	mov	r22,zero
 8002adc:	84000094 	ori	r16,r16,2
 8002ae0:	d9013615 	stw	r4,1240(sp)
 8002ae4:	00c00084 	movi	r3,2
 8002ae8:	04801e04 	movi	r18,120
 8002aec:	b805883a 	mov	r2,r23
 8002af0:	d8012585 	stb	zero,1174(sp)
 8002af4:	003f4406 	br	8002808 <__alt_data_end+0xf8002808>
 8002af8:	84000814 	ori	r16,r16,32
 8002afc:	ac800007 	ldb	r18,0(r21)
 8002b00:	003e2406 	br	8002394 <__alt_data_end+0xf8002394>
 8002b04:	d8812d17 	ldw	r2,1204(sp)
 8002b08:	d8012585 	stb	zero,1174(sp)
 8002b0c:	e013883a 	mov	r9,fp
 8002b10:	14c00017 	ldw	r19,0(r2)
 8002b14:	1839883a 	mov	fp,r3
 8002b18:	15c00104 	addi	r23,r2,4
 8002b1c:	98045526 	beq	r19,zero,8003c74 <___vfprintf_internal_r+0x1a50>
 8002b20:	9809883a 	mov	r4,r19
 8002b24:	18043116 	blt	r3,zero,8003bec <___vfprintf_internal_r+0x19c8>
 8002b28:	000b883a 	mov	r5,zero
 8002b2c:	180d883a 	mov	r6,r3
 8002b30:	da413c15 	stw	r9,1264(sp)
 8002b34:	80073ec0 	call	80073ec <memchr>
 8002b38:	da413c17 	ldw	r9,1264(sp)
 8002b3c:	10047a26 	beq	r2,zero,8003d28 <___vfprintf_internal_r+0x1b04>
 8002b40:	14c5c83a 	sub	r2,r2,r19
 8002b44:	d8812b15 	stw	r2,1196(sp)
 8002b48:	e083d40e 	bge	fp,r2,8003a9c <___vfprintf_internal_r+0x1878>
 8002b4c:	df012815 	stw	fp,1184(sp)
 8002b50:	e004e416 	blt	fp,zero,8003ee4 <___vfprintf_internal_r+0x1cc0>
 8002b54:	d8812583 	ldbu	r2,1174(sp)
 8002b58:	df012b15 	stw	fp,1196(sp)
 8002b5c:	ddc12d15 	stw	r23,1204(sp)
 8002b60:	d8013115 	stw	zero,1220(sp)
 8002b64:	003f3c06 	br	8002858 <__alt_data_end+0xf8002858>
 8002b68:	00820074 	movhi	r2,2049
 8002b6c:	10b9c304 	addi	r2,r2,-6388
 8002b70:	d8813615 	stw	r2,1240(sp)
 8002b74:	8080080c 	andi	r2,r16,32
 8002b78:	e013883a 	mov	r9,fp
 8002b7c:	1839883a 	mov	fp,r3
 8002b80:	103f891e 	bne	r2,zero,80029a8 <__alt_data_end+0xf80029a8>
 8002b84:	8080040c 	andi	r2,r16,16
 8002b88:	1002c326 	beq	r2,zero,8003698 <___vfprintf_internal_r+0x1474>
 8002b8c:	d8812d17 	ldw	r2,1204(sp)
 8002b90:	002d883a 	mov	r22,zero
 8002b94:	15c00017 	ldw	r23,0(r2)
 8002b98:	10800104 	addi	r2,r2,4
 8002b9c:	d8812d15 	stw	r2,1204(sp)
 8002ba0:	003f8606 	br	80029bc <__alt_data_end+0xf80029bc>
 8002ba4:	84001014 	ori	r16,r16,64
 8002ba8:	ac800007 	ldb	r18,0(r21)
 8002bac:	003df906 	br	8002394 <__alt_data_end+0xf8002394>
 8002bb0:	d8812587 	ldb	r2,1174(sp)
 8002bb4:	1002e51e 	bne	r2,zero,800374c <___vfprintf_internal_r+0x1528>
 8002bb8:	00800804 	movi	r2,32
 8002bbc:	d8812585 	stb	r2,1174(sp)
 8002bc0:	ac800007 	ldb	r18,0(r21)
 8002bc4:	003df306 	br	8002394 <__alt_data_end+0xf8002394>
 8002bc8:	84000054 	ori	r16,r16,1
 8002bcc:	ac800007 	ldb	r18,0(r21)
 8002bd0:	003df006 	br	8002394 <__alt_data_end+0xf8002394>
 8002bd4:	84002014 	ori	r16,r16,128
 8002bd8:	ac800007 	ldb	r18,0(r21)
 8002bdc:	003ded06 	br	8002394 <__alt_data_end+0xf8002394>
 8002be0:	0009883a 	mov	r4,zero
 8002be4:	95bff404 	addi	r22,r18,-48
 8002be8:	182f883a 	mov	r23,r3
 8002bec:	01400284 	movi	r5,10
 8002bf0:	800b0ec0 	call	800b0ec <__mulsi3>
 8002bf4:	ac800007 	ldb	r18,0(r21)
 8002bf8:	1589883a 	add	r4,r2,r22
 8002bfc:	ad400044 	addi	r21,r21,1
 8002c00:	95bff404 	addi	r22,r18,-48
 8002c04:	9dbff92e 	bgeu	r19,r22,8002bec <__alt_data_end+0xf8002bec>
 8002c08:	b807883a 	mov	r3,r23
 8002c0c:	d9012e15 	stw	r4,1208(sp)
 8002c10:	003de106 	br	8002398 <__alt_data_end+0xf8002398>
 8002c14:	00800ac4 	movi	r2,43
 8002c18:	d8812585 	stb	r2,1174(sp)
 8002c1c:	ac800007 	ldb	r18,0(r21)
 8002c20:	003ddc06 	br	8002394 <__alt_data_end+0xf8002394>
 8002c24:	d8c12d17 	ldw	r3,1204(sp)
 8002c28:	d9012d17 	ldw	r4,1204(sp)
 8002c2c:	e013883a 	mov	r9,fp
 8002c30:	18800017 	ldw	r2,0(r3)
 8002c34:	21000104 	addi	r4,r4,4
 8002c38:	00c00044 	movi	r3,1
 8002c3c:	d8c12815 	stw	r3,1184(sp)
 8002c40:	d8012585 	stb	zero,1174(sp)
 8002c44:	d8810405 	stb	r2,1040(sp)
 8002c48:	d9012d15 	stw	r4,1204(sp)
 8002c4c:	d8c12b15 	stw	r3,1196(sp)
 8002c50:	dcc10404 	addi	r19,sp,1040
 8002c54:	003dda06 	br	80023c0 <__alt_data_end+0xf80023c0>
 8002c58:	e013883a 	mov	r9,fp
 8002c5c:	1839883a 	mov	fp,r3
 8002c60:	003ed806 	br	80027c4 <__alt_data_end+0xf80027c4>
 8002c64:	e013883a 	mov	r9,fp
 8002c68:	1839883a 	mov	fp,r3
 8002c6c:	003f2d06 	br	8002924 <__alt_data_end+0xf8002924>
 8002c70:	e013883a 	mov	r9,fp
 8002c74:	1839883a 	mov	fp,r3
 8002c78:	003f3806 	br	800295c <__alt_data_end+0xf800295c>
 8002c7c:	da011d17 	ldw	r8,1140(sp)
 8002c80:	d8c11c17 	ldw	r3,1136(sp)
 8002c84:	d8812587 	ldb	r2,1174(sp)
 8002c88:	10000b26 	beq	r2,zero,8002cb8 <___vfprintf_internal_r+0xa94>
 8002c8c:	d8812584 	addi	r2,sp,1174
 8002c90:	48800015 	stw	r2,0(r9)
 8002c94:	00800044 	movi	r2,1
 8002c98:	48800115 	stw	r2,4(r9)
 8002c9c:	4091883a 	add	r8,r8,r2
 8002ca0:	1887883a 	add	r3,r3,r2
 8002ca4:	da011d15 	stw	r8,1140(sp)
 8002ca8:	d8c11c15 	stw	r3,1136(sp)
 8002cac:	008001c4 	movi	r2,7
 8002cb0:	10c18e16 	blt	r2,r3,80032ec <___vfprintf_internal_r+0x10c8>
 8002cb4:	4a400204 	addi	r9,r9,8
 8002cb8:	d9012a17 	ldw	r4,1192(sp)
 8002cbc:	20000b26 	beq	r4,zero,8002cec <___vfprintf_internal_r+0xac8>
 8002cc0:	d8812504 	addi	r2,sp,1172
 8002cc4:	48800015 	stw	r2,0(r9)
 8002cc8:	00800084 	movi	r2,2
 8002ccc:	48800115 	stw	r2,4(r9)
 8002cd0:	4091883a 	add	r8,r8,r2
 8002cd4:	18c00044 	addi	r3,r3,1
 8002cd8:	da011d15 	stw	r8,1140(sp)
 8002cdc:	d8c11c15 	stw	r3,1136(sp)
 8002ce0:	008001c4 	movi	r2,7
 8002ce4:	10c17816 	blt	r2,r3,80032c8 <___vfprintf_internal_r+0x10a4>
 8002ce8:	4a400204 	addi	r9,r9,8
 8002cec:	d9012f17 	ldw	r4,1212(sp)
 8002cf0:	00802004 	movi	r2,128
 8002cf4:	2080fc26 	beq	r4,r2,80030e8 <___vfprintf_internal_r+0xec4>
 8002cf8:	d8813117 	ldw	r2,1220(sp)
 8002cfc:	d9012b17 	ldw	r4,1196(sp)
 8002d00:	112fc83a 	sub	r23,r2,r4
 8002d04:	05c02a0e 	bge	zero,r23,8002db0 <___vfprintf_internal_r+0xb8c>
 8002d08:	07000404 	movi	fp,16
 8002d0c:	05020074 	movhi	r20,2049
 8002d10:	a539ce84 	addi	r20,r20,-6342
 8002d14:	e5c01d0e 	bge	fp,r23,8002d8c <___vfprintf_internal_r+0xb68>
 8002d18:	dc812a15 	stw	r18,1192(sp)
 8002d1c:	058001c4 	movi	r22,7
 8002d20:	a025883a 	mov	r18,r20
 8002d24:	8029883a 	mov	r20,r16
 8002d28:	dc012917 	ldw	r16,1188(sp)
 8002d2c:	00000306 	br	8002d3c <___vfprintf_internal_r+0xb18>
 8002d30:	bdfffc04 	addi	r23,r23,-16
 8002d34:	4a400204 	addi	r9,r9,8
 8002d38:	e5c0110e 	bge	fp,r23,8002d80 <___vfprintf_internal_r+0xb5c>
 8002d3c:	4c800015 	stw	r18,0(r9)
 8002d40:	4f000115 	stw	fp,4(r9)
 8002d44:	42000404 	addi	r8,r8,16
 8002d48:	18c00044 	addi	r3,r3,1
 8002d4c:	da011d15 	stw	r8,1140(sp)
 8002d50:	d8c11c15 	stw	r3,1136(sp)
 8002d54:	b0fff60e 	bge	r22,r3,8002d30 <__alt_data_end+0xf8002d30>
 8002d58:	8809883a 	mov	r4,r17
 8002d5c:	800b883a 	mov	r5,r16
 8002d60:	d9811b04 	addi	r6,sp,1132
 8002d64:	80021f00 	call	80021f0 <__sprint_r>
 8002d68:	103e741e 	bne	r2,zero,800273c <__alt_data_end+0xf800273c>
 8002d6c:	bdfffc04 	addi	r23,r23,-16
 8002d70:	da011d17 	ldw	r8,1140(sp)
 8002d74:	d8c11c17 	ldw	r3,1136(sp)
 8002d78:	da400404 	addi	r9,sp,16
 8002d7c:	e5ffef16 	blt	fp,r23,8002d3c <__alt_data_end+0xf8002d3c>
 8002d80:	a021883a 	mov	r16,r20
 8002d84:	9029883a 	mov	r20,r18
 8002d88:	dc812a17 	ldw	r18,1192(sp)
 8002d8c:	4d000015 	stw	r20,0(r9)
 8002d90:	4dc00115 	stw	r23,4(r9)
 8002d94:	45d1883a 	add	r8,r8,r23
 8002d98:	18c00044 	addi	r3,r3,1
 8002d9c:	da011d15 	stw	r8,1140(sp)
 8002da0:	d8c11c15 	stw	r3,1136(sp)
 8002da4:	008001c4 	movi	r2,7
 8002da8:	10c13e16 	blt	r2,r3,80032a4 <___vfprintf_internal_r+0x1080>
 8002dac:	4a400204 	addi	r9,r9,8
 8002db0:	8080400c 	andi	r2,r16,256
 8002db4:	1000831e 	bne	r2,zero,8002fc4 <___vfprintf_internal_r+0xda0>
 8002db8:	d8812b17 	ldw	r2,1196(sp)
 8002dbc:	4cc00015 	stw	r19,0(r9)
 8002dc0:	48800115 	stw	r2,4(r9)
 8002dc4:	4091883a 	add	r8,r8,r2
 8002dc8:	18c00044 	addi	r3,r3,1
 8002dcc:	da011d15 	stw	r8,1140(sp)
 8002dd0:	d8c11c15 	stw	r3,1136(sp)
 8002dd4:	008001c4 	movi	r2,7
 8002dd8:	10c05316 	blt	r2,r3,8002f28 <___vfprintf_internal_r+0xd04>
 8002ddc:	4a400204 	addi	r9,r9,8
 8002de0:	8400010c 	andi	r16,r16,4
 8002de4:	80002e26 	beq	r16,zero,8002ea0 <___vfprintf_internal_r+0xc7c>
 8002de8:	d8812e17 	ldw	r2,1208(sp)
 8002dec:	d8c12817 	ldw	r3,1184(sp)
 8002df0:	10e1c83a 	sub	r16,r2,r3
 8002df4:	04002a0e 	bge	zero,r16,8002ea0 <___vfprintf_internal_r+0xc7c>
 8002df8:	04800404 	movi	r18,16
 8002dfc:	d8c11c17 	ldw	r3,1136(sp)
 8002e00:	05c20074 	movhi	r23,2049
 8002e04:	bdf9ca84 	addi	r23,r23,-6358
 8002e08:	9400170e 	bge	r18,r16,8002e68 <___vfprintf_internal_r+0xc44>
 8002e0c:	04c001c4 	movi	r19,7
 8002e10:	dd012917 	ldw	r20,1188(sp)
 8002e14:	00000306 	br	8002e24 <___vfprintf_internal_r+0xc00>
 8002e18:	843ffc04 	addi	r16,r16,-16
 8002e1c:	4a400204 	addi	r9,r9,8
 8002e20:	9400110e 	bge	r18,r16,8002e68 <___vfprintf_internal_r+0xc44>
 8002e24:	4dc00015 	stw	r23,0(r9)
 8002e28:	4c800115 	stw	r18,4(r9)
 8002e2c:	42000404 	addi	r8,r8,16
 8002e30:	18c00044 	addi	r3,r3,1
 8002e34:	da011d15 	stw	r8,1140(sp)
 8002e38:	d8c11c15 	stw	r3,1136(sp)
 8002e3c:	98fff60e 	bge	r19,r3,8002e18 <__alt_data_end+0xf8002e18>
 8002e40:	8809883a 	mov	r4,r17
 8002e44:	a00b883a 	mov	r5,r20
 8002e48:	d9811b04 	addi	r6,sp,1132
 8002e4c:	80021f00 	call	80021f0 <__sprint_r>
 8002e50:	103e3a1e 	bne	r2,zero,800273c <__alt_data_end+0xf800273c>
 8002e54:	843ffc04 	addi	r16,r16,-16
 8002e58:	da011d17 	ldw	r8,1140(sp)
 8002e5c:	d8c11c17 	ldw	r3,1136(sp)
 8002e60:	da400404 	addi	r9,sp,16
 8002e64:	943fef16 	blt	r18,r16,8002e24 <__alt_data_end+0xf8002e24>
 8002e68:	4dc00015 	stw	r23,0(r9)
 8002e6c:	4c000115 	stw	r16,4(r9)
 8002e70:	8211883a 	add	r8,r16,r8
 8002e74:	18c00044 	addi	r3,r3,1
 8002e78:	da011d15 	stw	r8,1140(sp)
 8002e7c:	d8c11c15 	stw	r3,1136(sp)
 8002e80:	008001c4 	movi	r2,7
 8002e84:	10c0060e 	bge	r2,r3,8002ea0 <___vfprintf_internal_r+0xc7c>
 8002e88:	d9412917 	ldw	r5,1188(sp)
 8002e8c:	8809883a 	mov	r4,r17
 8002e90:	d9811b04 	addi	r6,sp,1132
 8002e94:	80021f00 	call	80021f0 <__sprint_r>
 8002e98:	103e281e 	bne	r2,zero,800273c <__alt_data_end+0xf800273c>
 8002e9c:	da011d17 	ldw	r8,1140(sp)
 8002ea0:	dd012817 	ldw	r20,1184(sp)
 8002ea4:	d9012e17 	ldw	r4,1208(sp)
 8002ea8:	a100010e 	bge	r20,r4,8002eb0 <___vfprintf_internal_r+0xc8c>
 8002eac:	2029883a 	mov	r20,r4
 8002eb0:	d8812c17 	ldw	r2,1200(sp)
 8002eb4:	1505883a 	add	r2,r2,r20
 8002eb8:	d8812c15 	stw	r2,1200(sp)
 8002ebc:	4000b91e 	bne	r8,zero,80031a4 <___vfprintf_internal_r+0xf80>
 8002ec0:	d8011c15 	stw	zero,1136(sp)
 8002ec4:	a8800007 	ldb	r2,0(r21)
 8002ec8:	da400404 	addi	r9,sp,16
 8002ecc:	103d0d1e 	bne	r2,zero,8002304 <__alt_data_end+0xf8002304>
 8002ed0:	a825883a 	mov	r18,r21
 8002ed4:	003d2306 	br	8002364 <__alt_data_end+0xf8002364>
 8002ed8:	d9412917 	ldw	r5,1188(sp)
 8002edc:	8809883a 	mov	r4,r17
 8002ee0:	d9811b04 	addi	r6,sp,1132
 8002ee4:	80021f00 	call	80021f0 <__sprint_r>
 8002ee8:	103e141e 	bne	r2,zero,800273c <__alt_data_end+0xf800273c>
 8002eec:	da011d17 	ldw	r8,1140(sp)
 8002ef0:	da400404 	addi	r9,sp,16
 8002ef4:	8080004c 	andi	r2,r16,1
 8002ef8:	103fb926 	beq	r2,zero,8002de0 <__alt_data_end+0xf8002de0>
 8002efc:	d8c11c17 	ldw	r3,1136(sp)
 8002f00:	d9013717 	ldw	r4,1244(sp)
 8002f04:	00800044 	movi	r2,1
 8002f08:	48800115 	stw	r2,4(r9)
 8002f0c:	49000015 	stw	r4,0(r9)
 8002f10:	4091883a 	add	r8,r8,r2
 8002f14:	1887883a 	add	r3,r3,r2
 8002f18:	da011d15 	stw	r8,1140(sp)
 8002f1c:	d8c11c15 	stw	r3,1136(sp)
 8002f20:	008001c4 	movi	r2,7
 8002f24:	10ffad0e 	bge	r2,r3,8002ddc <__alt_data_end+0xf8002ddc>
 8002f28:	d9412917 	ldw	r5,1188(sp)
 8002f2c:	8809883a 	mov	r4,r17
 8002f30:	d9811b04 	addi	r6,sp,1132
 8002f34:	80021f00 	call	80021f0 <__sprint_r>
 8002f38:	103e001e 	bne	r2,zero,800273c <__alt_data_end+0xf800273c>
 8002f3c:	da400404 	addi	r9,sp,16
 8002f40:	da011d17 	ldw	r8,1140(sp)
 8002f44:	003fa606 	br	8002de0 <__alt_data_end+0xf8002de0>
 8002f48:	18803fcc 	andi	r2,r3,255
 8002f4c:	00c00044 	movi	r3,1
 8002f50:	10c10126 	beq	r2,r3,8003358 <___vfprintf_internal_r+0x1134>
 8002f54:	00c00084 	movi	r3,2
 8002f58:	10c0ed26 	beq	r2,r3,8003310 <___vfprintf_internal_r+0x10ec>
 8002f5c:	d8c10dc4 	addi	r3,sp,1079
 8002f60:	b808d0fa 	srli	r4,r23,3
 8002f64:	b00a977a 	slli	r5,r22,29
 8002f68:	b02cd0fa 	srli	r22,r22,3
 8002f6c:	bdc001cc 	andi	r23,r23,7
 8002f70:	b8800c04 	addi	r2,r23,48
 8002f74:	292eb03a 	or	r23,r5,r4
 8002f78:	18800005 	stb	r2,0(r3)
 8002f7c:	bd88b03a 	or	r4,r23,r22
 8002f80:	1827883a 	mov	r19,r3
 8002f84:	18ffffc4 	addi	r3,r3,-1
 8002f88:	203ff51e 	bne	r4,zero,8002f60 <__alt_data_end+0xf8002f60>
 8002f8c:	8100004c 	andi	r4,r16,1
 8002f90:	980b883a 	mov	r5,r19
 8002f94:	20000726 	beq	r4,zero,8002fb4 <___vfprintf_internal_r+0xd90>
 8002f98:	10803fcc 	andi	r2,r2,255
 8002f9c:	1080201c 	xori	r2,r2,128
 8002fa0:	10bfe004 	addi	r2,r2,-128
 8002fa4:	01000c04 	movi	r4,48
 8002fa8:	11000226 	beq	r2,r4,8002fb4 <___vfprintf_internal_r+0xd90>
 8002fac:	1827883a 	mov	r19,r3
 8002fb0:	293fffc5 	stb	r4,-1(r5)
 8002fb4:	d8812717 	ldw	r2,1180(sp)
 8002fb8:	14c5c83a 	sub	r2,r2,r19
 8002fbc:	d8812b15 	stw	r2,1196(sp)
 8002fc0:	003e1f06 	br	8002840 <__alt_data_end+0xf8002840>
 8002fc4:	00801944 	movi	r2,101
 8002fc8:	14807c0e 	bge	r2,r18,80031bc <___vfprintf_internal_r+0xf98>
 8002fcc:	d9013317 	ldw	r4,1228(sp)
 8002fd0:	d9413417 	ldw	r5,1232(sp)
 8002fd4:	000d883a 	mov	r6,zero
 8002fd8:	000f883a 	mov	r7,zero
 8002fdc:	d8c13b15 	stw	r3,1260(sp)
 8002fe0:	da013a15 	stw	r8,1256(sp)
 8002fe4:	da413c15 	stw	r9,1264(sp)
 8002fe8:	800ab880 	call	800ab88 <__nedf2>
 8002fec:	d8c13b17 	ldw	r3,1260(sp)
 8002ff0:	da013a17 	ldw	r8,1256(sp)
 8002ff4:	da413c17 	ldw	r9,1264(sp)
 8002ff8:	1001001e 	bne	r2,zero,80033fc <___vfprintf_internal_r+0x11d8>
 8002ffc:	00820074 	movhi	r2,2049
 8003000:	10b9ca04 	addi	r2,r2,-6360
 8003004:	48800015 	stw	r2,0(r9)
 8003008:	00800044 	movi	r2,1
 800300c:	48800115 	stw	r2,4(r9)
 8003010:	4091883a 	add	r8,r8,r2
 8003014:	1887883a 	add	r3,r3,r2
 8003018:	da011d15 	stw	r8,1140(sp)
 800301c:	d8c11c15 	stw	r3,1136(sp)
 8003020:	008001c4 	movi	r2,7
 8003024:	10c20316 	blt	r2,r3,8003834 <___vfprintf_internal_r+0x1610>
 8003028:	4a400204 	addi	r9,r9,8
 800302c:	d8812417 	ldw	r2,1168(sp)
 8003030:	d8c13217 	ldw	r3,1224(sp)
 8003034:	10c00216 	blt	r2,r3,8003040 <___vfprintf_internal_r+0xe1c>
 8003038:	8080004c 	andi	r2,r16,1
 800303c:	103f6826 	beq	r2,zero,8002de0 <__alt_data_end+0xf8002de0>
 8003040:	d8c11c17 	ldw	r3,1136(sp)
 8003044:	d9013717 	ldw	r4,1244(sp)
 8003048:	00800044 	movi	r2,1
 800304c:	48800115 	stw	r2,4(r9)
 8003050:	49000015 	stw	r4,0(r9)
 8003054:	4091883a 	add	r8,r8,r2
 8003058:	1887883a 	add	r3,r3,r2
 800305c:	da011d15 	stw	r8,1140(sp)
 8003060:	d8c11c15 	stw	r3,1136(sp)
 8003064:	008001c4 	movi	r2,7
 8003068:	10c2ce16 	blt	r2,r3,8003ba4 <___vfprintf_internal_r+0x1980>
 800306c:	4a400204 	addi	r9,r9,8
 8003070:	d8813217 	ldw	r2,1224(sp)
 8003074:	14bfffc4 	addi	r18,r2,-1
 8003078:	04bf590e 	bge	zero,r18,8002de0 <__alt_data_end+0xf8002de0>
 800307c:	04c00404 	movi	r19,16
 8003080:	d8c11c17 	ldw	r3,1136(sp)
 8003084:	05020074 	movhi	r20,2049
 8003088:	a539ce84 	addi	r20,r20,-6342
 800308c:	9c818a0e 	bge	r19,r18,80036b8 <___vfprintf_internal_r+0x1494>
 8003090:	058001c4 	movi	r22,7
 8003094:	ddc12917 	ldw	r23,1188(sp)
 8003098:	00000306 	br	80030a8 <___vfprintf_internal_r+0xe84>
 800309c:	4a400204 	addi	r9,r9,8
 80030a0:	94bffc04 	addi	r18,r18,-16
 80030a4:	9c81840e 	bge	r19,r18,80036b8 <___vfprintf_internal_r+0x1494>
 80030a8:	4d000015 	stw	r20,0(r9)
 80030ac:	4cc00115 	stw	r19,4(r9)
 80030b0:	42000404 	addi	r8,r8,16
 80030b4:	18c00044 	addi	r3,r3,1
 80030b8:	da011d15 	stw	r8,1140(sp)
 80030bc:	d8c11c15 	stw	r3,1136(sp)
 80030c0:	b0fff60e 	bge	r22,r3,800309c <__alt_data_end+0xf800309c>
 80030c4:	8809883a 	mov	r4,r17
 80030c8:	b80b883a 	mov	r5,r23
 80030cc:	d9811b04 	addi	r6,sp,1132
 80030d0:	80021f00 	call	80021f0 <__sprint_r>
 80030d4:	103d991e 	bne	r2,zero,800273c <__alt_data_end+0xf800273c>
 80030d8:	da011d17 	ldw	r8,1140(sp)
 80030dc:	d8c11c17 	ldw	r3,1136(sp)
 80030e0:	da400404 	addi	r9,sp,16
 80030e4:	003fee06 	br	80030a0 <__alt_data_end+0xf80030a0>
 80030e8:	d8812e17 	ldw	r2,1208(sp)
 80030ec:	d9012817 	ldw	r4,1184(sp)
 80030f0:	112fc83a 	sub	r23,r2,r4
 80030f4:	05ff000e 	bge	zero,r23,8002cf8 <__alt_data_end+0xf8002cf8>
 80030f8:	07000404 	movi	fp,16
 80030fc:	05020074 	movhi	r20,2049
 8003100:	a539ce84 	addi	r20,r20,-6342
 8003104:	e5c01d0e 	bge	fp,r23,800317c <___vfprintf_internal_r+0xf58>
 8003108:	dc812a15 	stw	r18,1192(sp)
 800310c:	058001c4 	movi	r22,7
 8003110:	a025883a 	mov	r18,r20
 8003114:	8029883a 	mov	r20,r16
 8003118:	dc012917 	ldw	r16,1188(sp)
 800311c:	00000306 	br	800312c <___vfprintf_internal_r+0xf08>
 8003120:	bdfffc04 	addi	r23,r23,-16
 8003124:	4a400204 	addi	r9,r9,8
 8003128:	e5c0110e 	bge	fp,r23,8003170 <___vfprintf_internal_r+0xf4c>
 800312c:	4c800015 	stw	r18,0(r9)
 8003130:	4f000115 	stw	fp,4(r9)
 8003134:	42000404 	addi	r8,r8,16
 8003138:	18c00044 	addi	r3,r3,1
 800313c:	da011d15 	stw	r8,1140(sp)
 8003140:	d8c11c15 	stw	r3,1136(sp)
 8003144:	b0fff60e 	bge	r22,r3,8003120 <__alt_data_end+0xf8003120>
 8003148:	8809883a 	mov	r4,r17
 800314c:	800b883a 	mov	r5,r16
 8003150:	d9811b04 	addi	r6,sp,1132
 8003154:	80021f00 	call	80021f0 <__sprint_r>
 8003158:	103d781e 	bne	r2,zero,800273c <__alt_data_end+0xf800273c>
 800315c:	bdfffc04 	addi	r23,r23,-16
 8003160:	da011d17 	ldw	r8,1140(sp)
 8003164:	d8c11c17 	ldw	r3,1136(sp)
 8003168:	da400404 	addi	r9,sp,16
 800316c:	e5ffef16 	blt	fp,r23,800312c <__alt_data_end+0xf800312c>
 8003170:	a021883a 	mov	r16,r20
 8003174:	9029883a 	mov	r20,r18
 8003178:	dc812a17 	ldw	r18,1192(sp)
 800317c:	4d000015 	stw	r20,0(r9)
 8003180:	4dc00115 	stw	r23,4(r9)
 8003184:	45d1883a 	add	r8,r8,r23
 8003188:	18c00044 	addi	r3,r3,1
 800318c:	da011d15 	stw	r8,1140(sp)
 8003190:	d8c11c15 	stw	r3,1136(sp)
 8003194:	008001c4 	movi	r2,7
 8003198:	10c13616 	blt	r2,r3,8003674 <___vfprintf_internal_r+0x1450>
 800319c:	4a400204 	addi	r9,r9,8
 80031a0:	003ed506 	br	8002cf8 <__alt_data_end+0xf8002cf8>
 80031a4:	d9412917 	ldw	r5,1188(sp)
 80031a8:	8809883a 	mov	r4,r17
 80031ac:	d9811b04 	addi	r6,sp,1132
 80031b0:	80021f00 	call	80021f0 <__sprint_r>
 80031b4:	103f4226 	beq	r2,zero,8002ec0 <__alt_data_end+0xf8002ec0>
 80031b8:	003d6006 	br	800273c <__alt_data_end+0xf800273c>
 80031bc:	d9013217 	ldw	r4,1224(sp)
 80031c0:	00800044 	movi	r2,1
 80031c4:	4cc00015 	stw	r19,0(r9)
 80031c8:	1101000e 	bge	r2,r4,80035cc <___vfprintf_internal_r+0x13a8>
 80031cc:	00800044 	movi	r2,1
 80031d0:	48800115 	stw	r2,4(r9)
 80031d4:	4091883a 	add	r8,r8,r2
 80031d8:	1887883a 	add	r3,r3,r2
 80031dc:	da011d15 	stw	r8,1140(sp)
 80031e0:	d8c11c15 	stw	r3,1136(sp)
 80031e4:	008001c4 	movi	r2,7
 80031e8:	10c10c16 	blt	r2,r3,800361c <___vfprintf_internal_r+0x13f8>
 80031ec:	4a400204 	addi	r9,r9,8
 80031f0:	d8813717 	ldw	r2,1244(sp)
 80031f4:	48800015 	stw	r2,0(r9)
 80031f8:	00800044 	movi	r2,1
 80031fc:	48800115 	stw	r2,4(r9)
 8003200:	4091883a 	add	r8,r8,r2
 8003204:	1887883a 	add	r3,r3,r2
 8003208:	da011d15 	stw	r8,1140(sp)
 800320c:	d8c11c15 	stw	r3,1136(sp)
 8003210:	008001c4 	movi	r2,7
 8003214:	10c10a16 	blt	r2,r3,8003640 <___vfprintf_internal_r+0x141c>
 8003218:	4c800204 	addi	r18,r9,8
 800321c:	d9013317 	ldw	r4,1228(sp)
 8003220:	d9413417 	ldw	r5,1232(sp)
 8003224:	000d883a 	mov	r6,zero
 8003228:	000f883a 	mov	r7,zero
 800322c:	d8c13b15 	stw	r3,1260(sp)
 8003230:	da013a15 	stw	r8,1256(sp)
 8003234:	800ab2c0 	call	800ab2c <__eqdf2>
 8003238:	d8c13b17 	ldw	r3,1260(sp)
 800323c:	da013a17 	ldw	r8,1256(sp)
 8003240:	1000ba26 	beq	r2,zero,800352c <___vfprintf_internal_r+0x1308>
 8003244:	d9013217 	ldw	r4,1224(sp)
 8003248:	9cc00044 	addi	r19,r19,1
 800324c:	94c00015 	stw	r19,0(r18)
 8003250:	20bfffc4 	addi	r2,r4,-1
 8003254:	90800115 	stw	r2,4(r18)
 8003258:	4091883a 	add	r8,r8,r2
 800325c:	18c00044 	addi	r3,r3,1
 8003260:	da011d15 	stw	r8,1140(sp)
 8003264:	d8c11c15 	stw	r3,1136(sp)
 8003268:	008001c4 	movi	r2,7
 800326c:	10c0e216 	blt	r2,r3,80035f8 <___vfprintf_internal_r+0x13d4>
 8003270:	94800204 	addi	r18,r18,8
 8003274:	d9013517 	ldw	r4,1236(sp)
 8003278:	d8811fc4 	addi	r2,sp,1151
 800327c:	90800015 	stw	r2,0(r18)
 8003280:	91000115 	stw	r4,4(r18)
 8003284:	4111883a 	add	r8,r8,r4
 8003288:	18c00044 	addi	r3,r3,1
 800328c:	da011d15 	stw	r8,1140(sp)
 8003290:	d8c11c15 	stw	r3,1136(sp)
 8003294:	008001c4 	movi	r2,7
 8003298:	10ff2316 	blt	r2,r3,8002f28 <__alt_data_end+0xf8002f28>
 800329c:	92400204 	addi	r9,r18,8
 80032a0:	003ecf06 	br	8002de0 <__alt_data_end+0xf8002de0>
 80032a4:	d9412917 	ldw	r5,1188(sp)
 80032a8:	8809883a 	mov	r4,r17
 80032ac:	d9811b04 	addi	r6,sp,1132
 80032b0:	80021f00 	call	80021f0 <__sprint_r>
 80032b4:	103d211e 	bne	r2,zero,800273c <__alt_data_end+0xf800273c>
 80032b8:	da011d17 	ldw	r8,1140(sp)
 80032bc:	d8c11c17 	ldw	r3,1136(sp)
 80032c0:	da400404 	addi	r9,sp,16
 80032c4:	003eba06 	br	8002db0 <__alt_data_end+0xf8002db0>
 80032c8:	d9412917 	ldw	r5,1188(sp)
 80032cc:	8809883a 	mov	r4,r17
 80032d0:	d9811b04 	addi	r6,sp,1132
 80032d4:	80021f00 	call	80021f0 <__sprint_r>
 80032d8:	103d181e 	bne	r2,zero,800273c <__alt_data_end+0xf800273c>
 80032dc:	da011d17 	ldw	r8,1140(sp)
 80032e0:	d8c11c17 	ldw	r3,1136(sp)
 80032e4:	da400404 	addi	r9,sp,16
 80032e8:	003e8006 	br	8002cec <__alt_data_end+0xf8002cec>
 80032ec:	d9412917 	ldw	r5,1188(sp)
 80032f0:	8809883a 	mov	r4,r17
 80032f4:	d9811b04 	addi	r6,sp,1132
 80032f8:	80021f00 	call	80021f0 <__sprint_r>
 80032fc:	103d0f1e 	bne	r2,zero,800273c <__alt_data_end+0xf800273c>
 8003300:	da011d17 	ldw	r8,1140(sp)
 8003304:	d8c11c17 	ldw	r3,1136(sp)
 8003308:	da400404 	addi	r9,sp,16
 800330c:	003e6a06 	br	8002cb8 <__alt_data_end+0xf8002cb8>
 8003310:	d9413617 	ldw	r5,1240(sp)
 8003314:	d8810dc4 	addi	r2,sp,1079
 8003318:	b8c003cc 	andi	r3,r23,15
 800331c:	b008973a 	slli	r4,r22,28
 8003320:	28c7883a 	add	r3,r5,r3
 8003324:	b82ed13a 	srli	r23,r23,4
 8003328:	18c00003 	ldbu	r3,0(r3)
 800332c:	b02cd13a 	srli	r22,r22,4
 8003330:	25eeb03a 	or	r23,r4,r23
 8003334:	10c00005 	stb	r3,0(r2)
 8003338:	bd86b03a 	or	r3,r23,r22
 800333c:	1027883a 	mov	r19,r2
 8003340:	10bfffc4 	addi	r2,r2,-1
 8003344:	183ff41e 	bne	r3,zero,8003318 <__alt_data_end+0xf8003318>
 8003348:	003f1a06 	br	8002fb4 <__alt_data_end+0xf8002fb4>
 800334c:	d8012b15 	stw	zero,1196(sp)
 8003350:	dcc10e04 	addi	r19,sp,1080
 8003354:	003d3a06 	br	8002840 <__alt_data_end+0xf8002840>
 8003358:	b0025426 	beq	r22,zero,8003cac <___vfprintf_internal_r+0x1a88>
 800335c:	b807883a 	mov	r3,r23
 8003360:	d8810dc4 	addi	r2,sp,1079
 8003364:	882f883a 	mov	r23,r17
 8003368:	04c00244 	movi	r19,9
 800336c:	8023883a 	mov	r17,r16
 8003370:	da412815 	stw	r9,1184(sp)
 8003374:	1821883a 	mov	r16,r3
 8003378:	8009883a 	mov	r4,r16
 800337c:	b00b883a 	mov	r5,r22
 8003380:	01800284 	movi	r6,10
 8003384:	000f883a 	mov	r7,zero
 8003388:	1029883a 	mov	r20,r2
 800338c:	8009c640 	call	8009c64 <__umoddi3>
 8003390:	10800c04 	addi	r2,r2,48
 8003394:	8009883a 	mov	r4,r16
 8003398:	b00b883a 	mov	r5,r22
 800339c:	a0800005 	stb	r2,0(r20)
 80033a0:	01800284 	movi	r6,10
 80033a4:	000f883a 	mov	r7,zero
 80033a8:	80096140 	call	8009614 <__udivdi3>
 80033ac:	1021883a 	mov	r16,r2
 80033b0:	182d883a 	mov	r22,r3
 80033b4:	a0bfffc4 	addi	r2,r20,-1
 80033b8:	183fef1e 	bne	r3,zero,8003378 <__alt_data_end+0xf8003378>
 80033bc:	9c3fee36 	bltu	r19,r16,8003378 <__alt_data_end+0xf8003378>
 80033c0:	da412817 	ldw	r9,1184(sp)
 80033c4:	8005883a 	mov	r2,r16
 80033c8:	8821883a 	mov	r16,r17
 80033cc:	b823883a 	mov	r17,r23
 80033d0:	102f883a 	mov	r23,r2
 80033d4:	d8812717 	ldw	r2,1180(sp)
 80033d8:	a4ffffc4 	addi	r19,r20,-1
 80033dc:	bdc00c04 	addi	r23,r23,48
 80033e0:	14c5c83a 	sub	r2,r2,r19
 80033e4:	a5ffffc5 	stb	r23,-1(r20)
 80033e8:	d8812b15 	stw	r2,1196(sp)
 80033ec:	003d1406 	br	8002840 <__alt_data_end+0xf8002840>
 80033f0:	00c00044 	movi	r3,1
 80033f4:	bd84b03a 	or	r2,r23,r22
 80033f8:	003d0306 	br	8002808 <__alt_data_end+0xf8002808>
 80033fc:	dc812417 	ldw	r18,1168(sp)
 8003400:	0481140e 	bge	zero,r18,8003854 <___vfprintf_internal_r+0x1630>
 8003404:	d9013217 	ldw	r4,1224(sp)
 8003408:	4cc00015 	stw	r19,0(r9)
 800340c:	9100ec16 	blt	r18,r4,80037c0 <___vfprintf_internal_r+0x159c>
 8003410:	49000115 	stw	r4,4(r9)
 8003414:	4111883a 	add	r8,r8,r4
 8003418:	18c00044 	addi	r3,r3,1
 800341c:	da011d15 	stw	r8,1140(sp)
 8003420:	d8c11c15 	stw	r3,1136(sp)
 8003424:	008001c4 	movi	r2,7
 8003428:	10c23616 	blt	r2,r3,8003d04 <___vfprintf_internal_r+0x1ae0>
 800342c:	4a400204 	addi	r9,r9,8
 8003430:	d8813217 	ldw	r2,1224(sp)
 8003434:	90a5c83a 	sub	r18,r18,r2
 8003438:	04beae0e 	bge	zero,r18,8002ef4 <__alt_data_end+0xf8002ef4>
 800343c:	04c00404 	movi	r19,16
 8003440:	d8c11c17 	ldw	r3,1136(sp)
 8003444:	05020074 	movhi	r20,2049
 8003448:	a539ce84 	addi	r20,r20,-6342
 800344c:	9c81dd0e 	bge	r19,r18,8003bc4 <___vfprintf_internal_r+0x19a0>
 8003450:	058001c4 	movi	r22,7
 8003454:	ddc12917 	ldw	r23,1188(sp)
 8003458:	00000306 	br	8003468 <___vfprintf_internal_r+0x1244>
 800345c:	4a400204 	addi	r9,r9,8
 8003460:	94bffc04 	addi	r18,r18,-16
 8003464:	9c81d70e 	bge	r19,r18,8003bc4 <___vfprintf_internal_r+0x19a0>
 8003468:	4d000015 	stw	r20,0(r9)
 800346c:	4cc00115 	stw	r19,4(r9)
 8003470:	42000404 	addi	r8,r8,16
 8003474:	18c00044 	addi	r3,r3,1
 8003478:	da011d15 	stw	r8,1140(sp)
 800347c:	d8c11c15 	stw	r3,1136(sp)
 8003480:	b0fff60e 	bge	r22,r3,800345c <__alt_data_end+0xf800345c>
 8003484:	8809883a 	mov	r4,r17
 8003488:	b80b883a 	mov	r5,r23
 800348c:	d9811b04 	addi	r6,sp,1132
 8003490:	80021f00 	call	80021f0 <__sprint_r>
 8003494:	103ca91e 	bne	r2,zero,800273c <__alt_data_end+0xf800273c>
 8003498:	da011d17 	ldw	r8,1140(sp)
 800349c:	d8c11c17 	ldw	r3,1136(sp)
 80034a0:	da400404 	addi	r9,sp,16
 80034a4:	003fee06 	br	8003460 <__alt_data_end+0xf8003460>
 80034a8:	d9412917 	ldw	r5,1188(sp)
 80034ac:	8809883a 	mov	r4,r17
 80034b0:	d9811b04 	addi	r6,sp,1132
 80034b4:	80021f00 	call	80021f0 <__sprint_r>
 80034b8:	103ca01e 	bne	r2,zero,800273c <__alt_data_end+0xf800273c>
 80034bc:	da011d17 	ldw	r8,1140(sp)
 80034c0:	d8c11c17 	ldw	r3,1136(sp)
 80034c4:	da400404 	addi	r9,sp,16
 80034c8:	003dee06 	br	8002c84 <__alt_data_end+0xf8002c84>
 80034cc:	00c00084 	movi	r3,2
 80034d0:	bd84b03a 	or	r2,r23,r22
 80034d4:	d8012585 	stb	zero,1174(sp)
 80034d8:	003ccb06 	br	8002808 <__alt_data_end+0xf8002808>
 80034dc:	8080040c 	andi	r2,r16,16
 80034e0:	1000ae26 	beq	r2,zero,800379c <___vfprintf_internal_r+0x1578>
 80034e4:	d9012d17 	ldw	r4,1204(sp)
 80034e8:	25c00017 	ldw	r23,0(r4)
 80034ec:	21000104 	addi	r4,r4,4
 80034f0:	d9012d15 	stw	r4,1204(sp)
 80034f4:	b82dd7fa 	srai	r22,r23,31
 80034f8:	b005883a 	mov	r2,r22
 80034fc:	003cb906 	br	80027e4 <__alt_data_end+0xf80027e4>
 8003500:	8080040c 	andi	r2,r16,16
 8003504:	10007026 	beq	r2,zero,80036c8 <___vfprintf_internal_r+0x14a4>
 8003508:	d8812d17 	ldw	r2,1204(sp)
 800350c:	002d883a 	mov	r22,zero
 8003510:	00c00044 	movi	r3,1
 8003514:	15c00017 	ldw	r23,0(r2)
 8003518:	10800104 	addi	r2,r2,4
 800351c:	d8812d15 	stw	r2,1204(sp)
 8003520:	d8012585 	stb	zero,1174(sp)
 8003524:	b805883a 	mov	r2,r23
 8003528:	003cb706 	br	8002808 <__alt_data_end+0xf8002808>
 800352c:	d8813217 	ldw	r2,1224(sp)
 8003530:	14ffffc4 	addi	r19,r2,-1
 8003534:	04ff4f0e 	bge	zero,r19,8003274 <__alt_data_end+0xf8003274>
 8003538:	05800404 	movi	r22,16
 800353c:	05020074 	movhi	r20,2049
 8003540:	a539ce84 	addi	r20,r20,-6342
 8003544:	b4c0470e 	bge	r22,r19,8003664 <___vfprintf_internal_r+0x1440>
 8003548:	05c001c4 	movi	r23,7
 800354c:	df012917 	ldw	fp,1188(sp)
 8003550:	00000306 	br	8003560 <___vfprintf_internal_r+0x133c>
 8003554:	94800204 	addi	r18,r18,8
 8003558:	9cfffc04 	addi	r19,r19,-16
 800355c:	b4c0410e 	bge	r22,r19,8003664 <___vfprintf_internal_r+0x1440>
 8003560:	95000015 	stw	r20,0(r18)
 8003564:	95800115 	stw	r22,4(r18)
 8003568:	42000404 	addi	r8,r8,16
 800356c:	18c00044 	addi	r3,r3,1
 8003570:	da011d15 	stw	r8,1140(sp)
 8003574:	d8c11c15 	stw	r3,1136(sp)
 8003578:	b8fff60e 	bge	r23,r3,8003554 <__alt_data_end+0xf8003554>
 800357c:	8809883a 	mov	r4,r17
 8003580:	e00b883a 	mov	r5,fp
 8003584:	d9811b04 	addi	r6,sp,1132
 8003588:	80021f00 	call	80021f0 <__sprint_r>
 800358c:	103c6b1e 	bne	r2,zero,800273c <__alt_data_end+0xf800273c>
 8003590:	da011d17 	ldw	r8,1140(sp)
 8003594:	d8c11c17 	ldw	r3,1136(sp)
 8003598:	dc800404 	addi	r18,sp,16
 800359c:	003fee06 	br	8003558 <__alt_data_end+0xf8003558>
 80035a0:	8080040c 	andi	r2,r16,16
 80035a4:	10005326 	beq	r2,zero,80036f4 <___vfprintf_internal_r+0x14d0>
 80035a8:	d8c12d17 	ldw	r3,1204(sp)
 80035ac:	002d883a 	mov	r22,zero
 80035b0:	1dc00017 	ldw	r23,0(r3)
 80035b4:	18c00104 	addi	r3,r3,4
 80035b8:	d8c12d15 	stw	r3,1204(sp)
 80035bc:	b805883a 	mov	r2,r23
 80035c0:	0007883a 	mov	r3,zero
 80035c4:	d8012585 	stb	zero,1174(sp)
 80035c8:	003c8f06 	br	8002808 <__alt_data_end+0xf8002808>
 80035cc:	8088703a 	and	r4,r16,r2
 80035d0:	203efe1e 	bne	r4,zero,80031cc <__alt_data_end+0xf80031cc>
 80035d4:	48800115 	stw	r2,4(r9)
 80035d8:	42000044 	addi	r8,r8,1
 80035dc:	18c00044 	addi	r3,r3,1
 80035e0:	da011d15 	stw	r8,1140(sp)
 80035e4:	d8c11c15 	stw	r3,1136(sp)
 80035e8:	008001c4 	movi	r2,7
 80035ec:	10c00216 	blt	r2,r3,80035f8 <___vfprintf_internal_r+0x13d4>
 80035f0:	4c800204 	addi	r18,r9,8
 80035f4:	003f1f06 	br	8003274 <__alt_data_end+0xf8003274>
 80035f8:	d9412917 	ldw	r5,1188(sp)
 80035fc:	8809883a 	mov	r4,r17
 8003600:	d9811b04 	addi	r6,sp,1132
 8003604:	80021f00 	call	80021f0 <__sprint_r>
 8003608:	103c4c1e 	bne	r2,zero,800273c <__alt_data_end+0xf800273c>
 800360c:	dc800404 	addi	r18,sp,16
 8003610:	da011d17 	ldw	r8,1140(sp)
 8003614:	d8c11c17 	ldw	r3,1136(sp)
 8003618:	003f1606 	br	8003274 <__alt_data_end+0xf8003274>
 800361c:	d9412917 	ldw	r5,1188(sp)
 8003620:	8809883a 	mov	r4,r17
 8003624:	d9811b04 	addi	r6,sp,1132
 8003628:	80021f00 	call	80021f0 <__sprint_r>
 800362c:	103c431e 	bne	r2,zero,800273c <__alt_data_end+0xf800273c>
 8003630:	da011d17 	ldw	r8,1140(sp)
 8003634:	d8c11c17 	ldw	r3,1136(sp)
 8003638:	da400404 	addi	r9,sp,16
 800363c:	003eec06 	br	80031f0 <__alt_data_end+0xf80031f0>
 8003640:	d9412917 	ldw	r5,1188(sp)
 8003644:	8809883a 	mov	r4,r17
 8003648:	d9811b04 	addi	r6,sp,1132
 800364c:	80021f00 	call	80021f0 <__sprint_r>
 8003650:	103c3a1e 	bne	r2,zero,800273c <__alt_data_end+0xf800273c>
 8003654:	da011d17 	ldw	r8,1140(sp)
 8003658:	d8c11c17 	ldw	r3,1136(sp)
 800365c:	dc800404 	addi	r18,sp,16
 8003660:	003eee06 	br	800321c <__alt_data_end+0xf800321c>
 8003664:	95000015 	stw	r20,0(r18)
 8003668:	94c00115 	stw	r19,4(r18)
 800366c:	44d1883a 	add	r8,r8,r19
 8003670:	003efa06 	br	800325c <__alt_data_end+0xf800325c>
 8003674:	d9412917 	ldw	r5,1188(sp)
 8003678:	8809883a 	mov	r4,r17
 800367c:	d9811b04 	addi	r6,sp,1132
 8003680:	80021f00 	call	80021f0 <__sprint_r>
 8003684:	103c2d1e 	bne	r2,zero,800273c <__alt_data_end+0xf800273c>
 8003688:	da011d17 	ldw	r8,1140(sp)
 800368c:	d8c11c17 	ldw	r3,1136(sp)
 8003690:	da400404 	addi	r9,sp,16
 8003694:	003d9806 	br	8002cf8 <__alt_data_end+0xf8002cf8>
 8003698:	8080100c 	andi	r2,r16,64
 800369c:	10011626 	beq	r2,zero,8003af8 <___vfprintf_internal_r+0x18d4>
 80036a0:	d8c12d17 	ldw	r3,1204(sp)
 80036a4:	002d883a 	mov	r22,zero
 80036a8:	1dc0000b 	ldhu	r23,0(r3)
 80036ac:	18c00104 	addi	r3,r3,4
 80036b0:	d8c12d15 	stw	r3,1204(sp)
 80036b4:	003cc106 	br	80029bc <__alt_data_end+0xf80029bc>
 80036b8:	4d000015 	stw	r20,0(r9)
 80036bc:	4c800115 	stw	r18,4(r9)
 80036c0:	4491883a 	add	r8,r8,r18
 80036c4:	003dc006 	br	8002dc8 <__alt_data_end+0xf8002dc8>
 80036c8:	8080100c 	andi	r2,r16,64
 80036cc:	10010126 	beq	r2,zero,8003ad4 <___vfprintf_internal_r+0x18b0>
 80036d0:	d8c12d17 	ldw	r3,1204(sp)
 80036d4:	002d883a 	mov	r22,zero
 80036d8:	1dc0000b 	ldhu	r23,0(r3)
 80036dc:	18c00104 	addi	r3,r3,4
 80036e0:	d8c12d15 	stw	r3,1204(sp)
 80036e4:	b805883a 	mov	r2,r23
 80036e8:	00c00044 	movi	r3,1
 80036ec:	d8012585 	stb	zero,1174(sp)
 80036f0:	003c4506 	br	8002808 <__alt_data_end+0xf8002808>
 80036f4:	8080100c 	andi	r2,r16,64
 80036f8:	10010526 	beq	r2,zero,8003b10 <___vfprintf_internal_r+0x18ec>
 80036fc:	d9012d17 	ldw	r4,1204(sp)
 8003700:	002d883a 	mov	r22,zero
 8003704:	0007883a 	mov	r3,zero
 8003708:	25c0000b 	ldhu	r23,0(r4)
 800370c:	21000104 	addi	r4,r4,4
 8003710:	d9012d15 	stw	r4,1204(sp)
 8003714:	b805883a 	mov	r2,r23
 8003718:	d8012585 	stb	zero,1174(sp)
 800371c:	003c3a06 	br	8002808 <__alt_data_end+0xf8002808>
 8003720:	d8812d17 	ldw	r2,1204(sp)
 8003724:	15800017 	ldw	r22,0(r2)
 8003728:	15000117 	ldw	r20,4(r2)
 800372c:	10800204 	addi	r2,r2,8
 8003730:	d8812d15 	stw	r2,1204(sp)
 8003734:	dd813315 	stw	r22,1228(sp)
 8003738:	dd013415 	stw	r20,1232(sp)
 800373c:	003c5906 	br	80028a4 <__alt_data_end+0xf80028a4>
 8003740:	00c00084 	movi	r3,2
 8003744:	d8012585 	stb	zero,1174(sp)
 8003748:	003c2f06 	br	8002808 <__alt_data_end+0xf8002808>
 800374c:	ac800007 	ldb	r18,0(r21)
 8003750:	003b1006 	br	8002394 <__alt_data_end+0xf8002394>
 8003754:	8080040c 	andi	r2,r16,16
 8003758:	1000091e 	bne	r2,zero,8003780 <___vfprintf_internal_r+0x155c>
 800375c:	8400100c 	andi	r16,r16,64
 8003760:	80000726 	beq	r16,zero,8003780 <___vfprintf_internal_r+0x155c>
 8003764:	d8c12d17 	ldw	r3,1204(sp)
 8003768:	d9012c17 	ldw	r4,1200(sp)
 800376c:	18800017 	ldw	r2,0(r3)
 8003770:	18c00104 	addi	r3,r3,4
 8003774:	d8c12d15 	stw	r3,1204(sp)
 8003778:	1100000d 	sth	r4,0(r2)
 800377c:	003adf06 	br	80022fc <__alt_data_end+0xf80022fc>
 8003780:	d8c12d17 	ldw	r3,1204(sp)
 8003784:	d9012c17 	ldw	r4,1200(sp)
 8003788:	18800017 	ldw	r2,0(r3)
 800378c:	18c00104 	addi	r3,r3,4
 8003790:	d8c12d15 	stw	r3,1204(sp)
 8003794:	11000015 	stw	r4,0(r2)
 8003798:	003ad806 	br	80022fc <__alt_data_end+0xf80022fc>
 800379c:	8080100c 	andi	r2,r16,64
 80037a0:	1000c526 	beq	r2,zero,8003ab8 <___vfprintf_internal_r+0x1894>
 80037a4:	d8812d17 	ldw	r2,1204(sp)
 80037a8:	15c0000f 	ldh	r23,0(r2)
 80037ac:	10800104 	addi	r2,r2,4
 80037b0:	d8812d15 	stw	r2,1204(sp)
 80037b4:	b82dd7fa 	srai	r22,r23,31
 80037b8:	b005883a 	mov	r2,r22
 80037bc:	003c0906 	br	80027e4 <__alt_data_end+0xf80027e4>
 80037c0:	4c800115 	stw	r18,4(r9)
 80037c4:	9211883a 	add	r8,r18,r8
 80037c8:	18c00044 	addi	r3,r3,1
 80037cc:	da011d15 	stw	r8,1140(sp)
 80037d0:	d8c11c15 	stw	r3,1136(sp)
 80037d4:	008001c4 	movi	r2,7
 80037d8:	10c14016 	blt	r2,r3,8003cdc <___vfprintf_internal_r+0x1ab8>
 80037dc:	4a400204 	addi	r9,r9,8
 80037e0:	d8813717 	ldw	r2,1244(sp)
 80037e4:	9ca7883a 	add	r19,r19,r18
 80037e8:	48800015 	stw	r2,0(r9)
 80037ec:	00800044 	movi	r2,1
 80037f0:	48800115 	stw	r2,4(r9)
 80037f4:	4091883a 	add	r8,r8,r2
 80037f8:	1887883a 	add	r3,r3,r2
 80037fc:	da011d15 	stw	r8,1140(sp)
 8003800:	d8c11c15 	stw	r3,1136(sp)
 8003804:	008001c4 	movi	r2,7
 8003808:	10c12c16 	blt	r2,r3,8003cbc <___vfprintf_internal_r+0x1a98>
 800380c:	4a400204 	addi	r9,r9,8
 8003810:	d9013217 	ldw	r4,1224(sp)
 8003814:	da011d17 	ldw	r8,1140(sp)
 8003818:	d8c11c17 	ldw	r3,1136(sp)
 800381c:	24a5c83a 	sub	r18,r4,r18
 8003820:	4cc00015 	stw	r19,0(r9)
 8003824:	003fa506 	br	80036bc <__alt_data_end+0xf80036bc>
 8003828:	04c20074 	movhi	r19,2049
 800382c:	9cf9bb04 	addi	r19,r19,-6420
 8003830:	003c2e06 	br	80028ec <__alt_data_end+0xf80028ec>
 8003834:	d9412917 	ldw	r5,1188(sp)
 8003838:	8809883a 	mov	r4,r17
 800383c:	d9811b04 	addi	r6,sp,1132
 8003840:	80021f00 	call	80021f0 <__sprint_r>
 8003844:	103bbd1e 	bne	r2,zero,800273c <__alt_data_end+0xf800273c>
 8003848:	da011d17 	ldw	r8,1140(sp)
 800384c:	da400404 	addi	r9,sp,16
 8003850:	003df606 	br	800302c <__alt_data_end+0xf800302c>
 8003854:	00820074 	movhi	r2,2049
 8003858:	10b9ca04 	addi	r2,r2,-6360
 800385c:	48800015 	stw	r2,0(r9)
 8003860:	00800044 	movi	r2,1
 8003864:	48800115 	stw	r2,4(r9)
 8003868:	4091883a 	add	r8,r8,r2
 800386c:	1887883a 	add	r3,r3,r2
 8003870:	da011d15 	stw	r8,1140(sp)
 8003874:	d8c11c15 	stw	r3,1136(sp)
 8003878:	008001c4 	movi	r2,7
 800387c:	10c0bc16 	blt	r2,r3,8003b70 <___vfprintf_internal_r+0x194c>
 8003880:	4a400204 	addi	r9,r9,8
 8003884:	9000041e 	bne	r18,zero,8003898 <___vfprintf_internal_r+0x1674>
 8003888:	d8c13217 	ldw	r3,1224(sp)
 800388c:	1800021e 	bne	r3,zero,8003898 <___vfprintf_internal_r+0x1674>
 8003890:	8080004c 	andi	r2,r16,1
 8003894:	103d5226 	beq	r2,zero,8002de0 <__alt_data_end+0xf8002de0>
 8003898:	d8c11c17 	ldw	r3,1136(sp)
 800389c:	d9013717 	ldw	r4,1244(sp)
 80038a0:	00800044 	movi	r2,1
 80038a4:	48800115 	stw	r2,4(r9)
 80038a8:	49000015 	stw	r4,0(r9)
 80038ac:	4091883a 	add	r8,r8,r2
 80038b0:	1887883a 	add	r3,r3,r2
 80038b4:	da011d15 	stw	r8,1140(sp)
 80038b8:	d8c11c15 	stw	r3,1136(sp)
 80038bc:	008001c4 	movi	r2,7
 80038c0:	10c14516 	blt	r2,r3,8003dd8 <___vfprintf_internal_r+0x1bb4>
 80038c4:	4a400204 	addi	r9,r9,8
 80038c8:	04a5c83a 	sub	r18,zero,r18
 80038cc:	0480d70e 	bge	zero,r18,8003c2c <___vfprintf_internal_r+0x1a08>
 80038d0:	05800404 	movi	r22,16
 80038d4:	05020074 	movhi	r20,2049
 80038d8:	a539ce84 	addi	r20,r20,-6342
 80038dc:	b480db0e 	bge	r22,r18,8003c4c <___vfprintf_internal_r+0x1a28>
 80038e0:	05c001c4 	movi	r23,7
 80038e4:	df012917 	ldw	fp,1188(sp)
 80038e8:	00000306 	br	80038f8 <___vfprintf_internal_r+0x16d4>
 80038ec:	4a400204 	addi	r9,r9,8
 80038f0:	94bffc04 	addi	r18,r18,-16
 80038f4:	b480d50e 	bge	r22,r18,8003c4c <___vfprintf_internal_r+0x1a28>
 80038f8:	4d000015 	stw	r20,0(r9)
 80038fc:	4d800115 	stw	r22,4(r9)
 8003900:	42000404 	addi	r8,r8,16
 8003904:	18c00044 	addi	r3,r3,1
 8003908:	da011d15 	stw	r8,1140(sp)
 800390c:	d8c11c15 	stw	r3,1136(sp)
 8003910:	b8fff60e 	bge	r23,r3,80038ec <__alt_data_end+0xf80038ec>
 8003914:	8809883a 	mov	r4,r17
 8003918:	e00b883a 	mov	r5,fp
 800391c:	d9811b04 	addi	r6,sp,1132
 8003920:	80021f00 	call	80021f0 <__sprint_r>
 8003924:	103b851e 	bne	r2,zero,800273c <__alt_data_end+0xf800273c>
 8003928:	da011d17 	ldw	r8,1140(sp)
 800392c:	d8c11c17 	ldw	r3,1136(sp)
 8003930:	da400404 	addi	r9,sp,16
 8003934:	003fee06 	br	80038f0 <__alt_data_end+0xf80038f0>
 8003938:	da413c15 	stw	r9,1264(sp)
 800393c:	8008f100 	call	8008f10 <__isnand>
 8003940:	da413c17 	ldw	r9,1264(sp)
 8003944:	10007e1e 	bne	r2,zero,8003b40 <___vfprintf_internal_r+0x191c>
 8003948:	00bfffc4 	movi	r2,-1
 800394c:	e0816a26 	beq	fp,r2,8003ef8 <___vfprintf_internal_r+0x1cd4>
 8003950:	008019c4 	movi	r2,103
 8003954:	90816526 	beq	r18,r2,8003eec <___vfprintf_internal_r+0x1cc8>
 8003958:	008011c4 	movi	r2,71
 800395c:	90816326 	beq	r18,r2,8003eec <___vfprintf_internal_r+0x1cc8>
 8003960:	80c04014 	ori	r3,r16,256
 8003964:	d8c12a15 	stw	r3,1192(sp)
 8003968:	a0016516 	blt	r20,zero,8003f00 <___vfprintf_internal_r+0x1cdc>
 800396c:	d8012f05 	stb	zero,1212(sp)
 8003970:	00801984 	movi	r2,102
 8003974:	9080f226 	beq	r18,r2,8003d40 <___vfprintf_internal_r+0x1b1c>
 8003978:	00801184 	movi	r2,70
 800397c:	9080f026 	beq	r18,r2,8003d40 <___vfprintf_internal_r+0x1b1c>
 8003980:	00801944 	movi	r2,101
 8003984:	90818d26 	beq	r18,r2,8003fbc <___vfprintf_internal_r+0x1d98>
 8003988:	00801144 	movi	r2,69
 800398c:	90818b26 	beq	r18,r2,8003fbc <___vfprintf_internal_r+0x1d98>
 8003990:	e02f883a 	mov	r23,fp
 8003994:	d8812404 	addi	r2,sp,1168
 8003998:	d8800115 	stw	r2,4(sp)
 800399c:	d8812304 	addi	r2,sp,1164
 80039a0:	d8800215 	stw	r2,8(sp)
 80039a4:	d8812204 	addi	r2,sp,1160
 80039a8:	ddc00015 	stw	r23,0(sp)
 80039ac:	d8800315 	stw	r2,12(sp)
 80039b0:	8809883a 	mov	r4,r17
 80039b4:	b00b883a 	mov	r5,r22
 80039b8:	a00d883a 	mov	r6,r20
 80039bc:	01c00084 	movi	r7,2
 80039c0:	da413c15 	stw	r9,1264(sp)
 80039c4:	80044740 	call	8004474 <_dtoa_r>
 80039c8:	1027883a 	mov	r19,r2
 80039cc:	008019c4 	movi	r2,103
 80039d0:	da413c17 	ldw	r9,1264(sp)
 80039d4:	9081951e 	bne	r18,r2,800402c <___vfprintf_internal_r+0x1e08>
 80039d8:	8080004c 	andi	r2,r16,1
 80039dc:	10017926 	beq	r2,zero,8003fc4 <___vfprintf_internal_r+0x1da0>
 80039e0:	00801184 	movi	r2,70
 80039e4:	9dc7883a 	add	r3,r19,r23
 80039e8:	9080e626 	beq	r18,r2,8003d84 <___vfprintf_internal_r+0x1b60>
 80039ec:	b009883a 	mov	r4,r22
 80039f0:	a00b883a 	mov	r5,r20
 80039f4:	000d883a 	mov	r6,zero
 80039f8:	000f883a 	mov	r7,zero
 80039fc:	d8c13b15 	stw	r3,1260(sp)
 8003a00:	da413c15 	stw	r9,1264(sp)
 8003a04:	800ab2c0 	call	800ab2c <__eqdf2>
 8003a08:	d8c13b17 	ldw	r3,1260(sp)
 8003a0c:	da413c17 	ldw	r9,1264(sp)
 8003a10:	10000726 	beq	r2,zero,8003a30 <___vfprintf_internal_r+0x180c>
 8003a14:	d8812217 	ldw	r2,1160(sp)
 8003a18:	10c18a2e 	bgeu	r2,r3,8004044 <___vfprintf_internal_r+0x1e20>
 8003a1c:	01000c04 	movi	r4,48
 8003a20:	11000005 	stb	r4,0(r2)
 8003a24:	10800044 	addi	r2,r2,1
 8003a28:	d8812215 	stw	r2,1160(sp)
 8003a2c:	10fffc1e 	bne	r2,r3,8003a20 <__alt_data_end+0xf8003a20>
 8003a30:	1cc7c83a 	sub	r3,r3,r19
 8003a34:	d8c13215 	stw	r3,1224(sp)
 8003a38:	008019c4 	movi	r2,103
 8003a3c:	9080fa26 	beq	r18,r2,8003e28 <___vfprintf_internal_r+0x1c04>
 8003a40:	008011c4 	movi	r2,71
 8003a44:	9080f826 	beq	r18,r2,8003e28 <___vfprintf_internal_r+0x1c04>
 8003a48:	00801984 	movi	r2,102
 8003a4c:	90818e1e 	bne	r18,r2,8004088 <___vfprintf_internal_r+0x1e64>
 8003a50:	d8812417 	ldw	r2,1168(sp)
 8003a54:	d8812b15 	stw	r2,1196(sp)
 8003a58:	00817c0e 	bge	zero,r2,800404c <___vfprintf_internal_r+0x1e28>
 8003a5c:	e000021e 	bne	fp,zero,8003a68 <___vfprintf_internal_r+0x1844>
 8003a60:	8400004c 	andi	r16,r16,1
 8003a64:	80000426 	beq	r16,zero,8003a78 <___vfprintf_internal_r+0x1854>
 8003a68:	d8812b17 	ldw	r2,1196(sp)
 8003a6c:	e2000044 	addi	r8,fp,1
 8003a70:	1205883a 	add	r2,r2,r8
 8003a74:	d8812b15 	stw	r2,1196(sp)
 8003a78:	d8812815 	stw	r2,1184(sp)
 8003a7c:	10010b16 	blt	r2,zero,8003eac <___vfprintf_internal_r+0x1c88>
 8003a80:	ddc12f07 	ldb	r23,1212(sp)
 8003a84:	b800e426 	beq	r23,zero,8003e18 <___vfprintf_internal_r+0x1bf4>
 8003a88:	00800b44 	movi	r2,45
 8003a8c:	d8812585 	stb	r2,1174(sp)
 8003a90:	dc012a17 	ldw	r16,1192(sp)
 8003a94:	d8013115 	stw	zero,1220(sp)
 8003a98:	003b7306 	br	8002868 <__alt_data_end+0xf8002868>
 8003a9c:	d8812b17 	ldw	r2,1196(sp)
 8003aa0:	d8812815 	stw	r2,1184(sp)
 8003aa4:	10005716 	blt	r2,zero,8003c04 <___vfprintf_internal_r+0x19e0>
 8003aa8:	d8812583 	ldbu	r2,1174(sp)
 8003aac:	ddc12d15 	stw	r23,1204(sp)
 8003ab0:	d8013115 	stw	zero,1220(sp)
 8003ab4:	003b6806 	br	8002858 <__alt_data_end+0xf8002858>
 8003ab8:	d8c12d17 	ldw	r3,1204(sp)
 8003abc:	1dc00017 	ldw	r23,0(r3)
 8003ac0:	18c00104 	addi	r3,r3,4
 8003ac4:	d8c12d15 	stw	r3,1204(sp)
 8003ac8:	b82dd7fa 	srai	r22,r23,31
 8003acc:	b005883a 	mov	r2,r22
 8003ad0:	003b4406 	br	80027e4 <__alt_data_end+0xf80027e4>
 8003ad4:	d9012d17 	ldw	r4,1204(sp)
 8003ad8:	002d883a 	mov	r22,zero
 8003adc:	00c00044 	movi	r3,1
 8003ae0:	25c00017 	ldw	r23,0(r4)
 8003ae4:	21000104 	addi	r4,r4,4
 8003ae8:	d9012d15 	stw	r4,1204(sp)
 8003aec:	b805883a 	mov	r2,r23
 8003af0:	d8012585 	stb	zero,1174(sp)
 8003af4:	003b4406 	br	8002808 <__alt_data_end+0xf8002808>
 8003af8:	d9012d17 	ldw	r4,1204(sp)
 8003afc:	002d883a 	mov	r22,zero
 8003b00:	25c00017 	ldw	r23,0(r4)
 8003b04:	21000104 	addi	r4,r4,4
 8003b08:	d9012d15 	stw	r4,1204(sp)
 8003b0c:	003bab06 	br	80029bc <__alt_data_end+0xf80029bc>
 8003b10:	d8812d17 	ldw	r2,1204(sp)
 8003b14:	002d883a 	mov	r22,zero
 8003b18:	0007883a 	mov	r3,zero
 8003b1c:	15c00017 	ldw	r23,0(r2)
 8003b20:	10800104 	addi	r2,r2,4
 8003b24:	d8812d15 	stw	r2,1204(sp)
 8003b28:	d8012585 	stb	zero,1174(sp)
 8003b2c:	b805883a 	mov	r2,r23
 8003b30:	003b3506 	br	8002808 <__alt_data_end+0xf8002808>
 8003b34:	00ffffc4 	movi	r3,-1
 8003b38:	b82b883a 	mov	r21,r23
 8003b3c:	003a1606 	br	8002398 <__alt_data_end+0xf8002398>
 8003b40:	008011c4 	movi	r2,71
 8003b44:	1480b116 	blt	r2,r18,8003e0c <___vfprintf_internal_r+0x1be8>
 8003b48:	04c20074 	movhi	r19,2049
 8003b4c:	9cf9bc04 	addi	r19,r19,-6416
 8003b50:	00c000c4 	movi	r3,3
 8003b54:	00bfdfc4 	movi	r2,-129
 8003b58:	80a0703a 	and	r16,r16,r2
 8003b5c:	d8c12815 	stw	r3,1184(sp)
 8003b60:	d8812583 	ldbu	r2,1174(sp)
 8003b64:	d8c12b15 	stw	r3,1196(sp)
 8003b68:	d8013115 	stw	zero,1220(sp)
 8003b6c:	003b3a06 	br	8002858 <__alt_data_end+0xf8002858>
 8003b70:	d9412917 	ldw	r5,1188(sp)
 8003b74:	8809883a 	mov	r4,r17
 8003b78:	d9811b04 	addi	r6,sp,1132
 8003b7c:	80021f00 	call	80021f0 <__sprint_r>
 8003b80:	103aee1e 	bne	r2,zero,800273c <__alt_data_end+0xf800273c>
 8003b84:	dc812417 	ldw	r18,1168(sp)
 8003b88:	da011d17 	ldw	r8,1140(sp)
 8003b8c:	da400404 	addi	r9,sp,16
 8003b90:	003f3c06 	br	8003884 <__alt_data_end+0xf8003884>
 8003b94:	ad400044 	addi	r21,r21,1
 8003b98:	84000814 	ori	r16,r16,32
 8003b9c:	14800047 	ldb	r18,1(r2)
 8003ba0:	0039fc06 	br	8002394 <__alt_data_end+0xf8002394>
 8003ba4:	d9412917 	ldw	r5,1188(sp)
 8003ba8:	8809883a 	mov	r4,r17
 8003bac:	d9811b04 	addi	r6,sp,1132
 8003bb0:	80021f00 	call	80021f0 <__sprint_r>
 8003bb4:	103ae11e 	bne	r2,zero,800273c <__alt_data_end+0xf800273c>
 8003bb8:	da011d17 	ldw	r8,1140(sp)
 8003bbc:	da400404 	addi	r9,sp,16
 8003bc0:	003d2b06 	br	8003070 <__alt_data_end+0xf8003070>
 8003bc4:	4d000015 	stw	r20,0(r9)
 8003bc8:	4c800115 	stw	r18,4(r9)
 8003bcc:	4491883a 	add	r8,r8,r18
 8003bd0:	18c00044 	addi	r3,r3,1
 8003bd4:	da011d15 	stw	r8,1140(sp)
 8003bd8:	d8c11c15 	stw	r3,1136(sp)
 8003bdc:	008001c4 	movi	r2,7
 8003be0:	10fcbd16 	blt	r2,r3,8002ed8 <__alt_data_end+0xf8002ed8>
 8003be4:	4a400204 	addi	r9,r9,8
 8003be8:	003cc206 	br	8002ef4 <__alt_data_end+0xf8002ef4>
 8003bec:	da413c15 	stw	r9,1264(sp)
 8003bf0:	80021640 	call	8002164 <strlen>
 8003bf4:	d8812b15 	stw	r2,1196(sp)
 8003bf8:	d8812815 	stw	r2,1184(sp)
 8003bfc:	da413c17 	ldw	r9,1264(sp)
 8003c00:	103fa90e 	bge	r2,zero,8003aa8 <__alt_data_end+0xf8003aa8>
 8003c04:	d8012815 	stw	zero,1184(sp)
 8003c08:	003fa706 	br	8003aa8 <__alt_data_end+0xf8003aa8>
 8003c0c:	d9412917 	ldw	r5,1188(sp)
 8003c10:	8809883a 	mov	r4,r17
 8003c14:	d9811b04 	addi	r6,sp,1132
 8003c18:	80021f00 	call	80021f0 <__sprint_r>
 8003c1c:	103ac71e 	bne	r2,zero,800273c <__alt_data_end+0xf800273c>
 8003c20:	da011d17 	ldw	r8,1140(sp)
 8003c24:	d8c11c17 	ldw	r3,1136(sp)
 8003c28:	da400404 	addi	r9,sp,16
 8003c2c:	d8813217 	ldw	r2,1224(sp)
 8003c30:	4cc00015 	stw	r19,0(r9)
 8003c34:	48800115 	stw	r2,4(r9)
 8003c38:	4091883a 	add	r8,r8,r2
 8003c3c:	003c6206 	br	8002dc8 <__alt_data_end+0xf8002dc8>
 8003c40:	00800b44 	movi	r2,45
 8003c44:	d8812585 	stb	r2,1174(sp)
 8003c48:	003b2406 	br	80028dc <__alt_data_end+0xf80028dc>
 8003c4c:	4d000015 	stw	r20,0(r9)
 8003c50:	4c800115 	stw	r18,4(r9)
 8003c54:	4491883a 	add	r8,r8,r18
 8003c58:	18c00044 	addi	r3,r3,1
 8003c5c:	da011d15 	stw	r8,1140(sp)
 8003c60:	d8c11c15 	stw	r3,1136(sp)
 8003c64:	008001c4 	movi	r2,7
 8003c68:	10ffe816 	blt	r2,r3,8003c0c <__alt_data_end+0xf8003c0c>
 8003c6c:	4a400204 	addi	r9,r9,8
 8003c70:	003fee06 	br	8003c2c <__alt_data_end+0xf8003c2c>
 8003c74:	d8c12b15 	stw	r3,1196(sp)
 8003c78:	00800184 	movi	r2,6
 8003c7c:	10c0062e 	bgeu	r2,r3,8003c98 <___vfprintf_internal_r+0x1a74>
 8003c80:	d8812b15 	stw	r2,1196(sp)
 8003c84:	d8812815 	stw	r2,1184(sp)
 8003c88:	ddc12d15 	stw	r23,1204(sp)
 8003c8c:	04c20074 	movhi	r19,2049
 8003c90:	9cf9c804 	addi	r19,r19,-6368
 8003c94:	0039ca06 	br	80023c0 <__alt_data_end+0xf80023c0>
 8003c98:	d8812b17 	ldw	r2,1196(sp)
 8003c9c:	d8812815 	stw	r2,1184(sp)
 8003ca0:	103ff90e 	bge	r2,zero,8003c88 <__alt_data_end+0xf8003c88>
 8003ca4:	d8012815 	stw	zero,1184(sp)
 8003ca8:	003ff706 	br	8003c88 <__alt_data_end+0xf8003c88>
 8003cac:	00800244 	movi	r2,9
 8003cb0:	15fdaa36 	bltu	r2,r23,800335c <__alt_data_end+0xf800335c>
 8003cb4:	dd010e04 	addi	r20,sp,1080
 8003cb8:	003dc606 	br	80033d4 <__alt_data_end+0xf80033d4>
 8003cbc:	d9412917 	ldw	r5,1188(sp)
 8003cc0:	8809883a 	mov	r4,r17
 8003cc4:	d9811b04 	addi	r6,sp,1132
 8003cc8:	80021f00 	call	80021f0 <__sprint_r>
 8003ccc:	103a9b1e 	bne	r2,zero,800273c <__alt_data_end+0xf800273c>
 8003cd0:	dc812417 	ldw	r18,1168(sp)
 8003cd4:	da400404 	addi	r9,sp,16
 8003cd8:	003ecd06 	br	8003810 <__alt_data_end+0xf8003810>
 8003cdc:	d9412917 	ldw	r5,1188(sp)
 8003ce0:	8809883a 	mov	r4,r17
 8003ce4:	d9811b04 	addi	r6,sp,1132
 8003ce8:	80021f00 	call	80021f0 <__sprint_r>
 8003cec:	103a931e 	bne	r2,zero,800273c <__alt_data_end+0xf800273c>
 8003cf0:	dc812417 	ldw	r18,1168(sp)
 8003cf4:	da011d17 	ldw	r8,1140(sp)
 8003cf8:	d8c11c17 	ldw	r3,1136(sp)
 8003cfc:	da400404 	addi	r9,sp,16
 8003d00:	003eb706 	br	80037e0 <__alt_data_end+0xf80037e0>
 8003d04:	d9412917 	ldw	r5,1188(sp)
 8003d08:	8809883a 	mov	r4,r17
 8003d0c:	d9811b04 	addi	r6,sp,1132
 8003d10:	80021f00 	call	80021f0 <__sprint_r>
 8003d14:	103a891e 	bne	r2,zero,800273c <__alt_data_end+0xf800273c>
 8003d18:	dc812417 	ldw	r18,1168(sp)
 8003d1c:	da011d17 	ldw	r8,1140(sp)
 8003d20:	da400404 	addi	r9,sp,16
 8003d24:	003dc206 	br	8003430 <__alt_data_end+0xf8003430>
 8003d28:	df012815 	stw	fp,1184(sp)
 8003d2c:	d8812583 	ldbu	r2,1174(sp)
 8003d30:	df012b15 	stw	fp,1196(sp)
 8003d34:	ddc12d15 	stw	r23,1204(sp)
 8003d38:	d8013115 	stw	zero,1220(sp)
 8003d3c:	003ac606 	br	8002858 <__alt_data_end+0xf8002858>
 8003d40:	d8812404 	addi	r2,sp,1168
 8003d44:	d8800115 	stw	r2,4(sp)
 8003d48:	d8812304 	addi	r2,sp,1164
 8003d4c:	d8800215 	stw	r2,8(sp)
 8003d50:	d8812204 	addi	r2,sp,1160
 8003d54:	df000015 	stw	fp,0(sp)
 8003d58:	d8800315 	stw	r2,12(sp)
 8003d5c:	8809883a 	mov	r4,r17
 8003d60:	b00b883a 	mov	r5,r22
 8003d64:	a00d883a 	mov	r6,r20
 8003d68:	01c000c4 	movi	r7,3
 8003d6c:	da413c15 	stw	r9,1264(sp)
 8003d70:	80044740 	call	8004474 <_dtoa_r>
 8003d74:	da413c17 	ldw	r9,1264(sp)
 8003d78:	1027883a 	mov	r19,r2
 8003d7c:	1707883a 	add	r3,r2,fp
 8003d80:	e02f883a 	mov	r23,fp
 8003d84:	99000007 	ldb	r4,0(r19)
 8003d88:	00800c04 	movi	r2,48
 8003d8c:	20800326 	beq	r4,r2,8003d9c <___vfprintf_internal_r+0x1b78>
 8003d90:	da812417 	ldw	r10,1168(sp)
 8003d94:	1a87883a 	add	r3,r3,r10
 8003d98:	003f1406 	br	80039ec <__alt_data_end+0xf80039ec>
 8003d9c:	b009883a 	mov	r4,r22
 8003da0:	a00b883a 	mov	r5,r20
 8003da4:	000d883a 	mov	r6,zero
 8003da8:	000f883a 	mov	r7,zero
 8003dac:	d8c13b15 	stw	r3,1260(sp)
 8003db0:	da413c15 	stw	r9,1264(sp)
 8003db4:	800ab880 	call	800ab88 <__nedf2>
 8003db8:	d8c13b17 	ldw	r3,1260(sp)
 8003dbc:	da413c17 	ldw	r9,1264(sp)
 8003dc0:	103ff326 	beq	r2,zero,8003d90 <__alt_data_end+0xf8003d90>
 8003dc4:	00800044 	movi	r2,1
 8003dc8:	15d5c83a 	sub	r10,r2,r23
 8003dcc:	da812415 	stw	r10,1168(sp)
 8003dd0:	1a87883a 	add	r3,r3,r10
 8003dd4:	003f0506 	br	80039ec <__alt_data_end+0xf80039ec>
 8003dd8:	d9412917 	ldw	r5,1188(sp)
 8003ddc:	8809883a 	mov	r4,r17
 8003de0:	d9811b04 	addi	r6,sp,1132
 8003de4:	80021f00 	call	80021f0 <__sprint_r>
 8003de8:	103a541e 	bne	r2,zero,800273c <__alt_data_end+0xf800273c>
 8003dec:	dc812417 	ldw	r18,1168(sp)
 8003df0:	da011d17 	ldw	r8,1140(sp)
 8003df4:	d8c11c17 	ldw	r3,1136(sp)
 8003df8:	da400404 	addi	r9,sp,16
 8003dfc:	003eb206 	br	80038c8 <__alt_data_end+0xf80038c8>
 8003e00:	b82b883a 	mov	r21,r23
 8003e04:	0007883a 	mov	r3,zero
 8003e08:	00396306 	br	8002398 <__alt_data_end+0xf8002398>
 8003e0c:	04c20074 	movhi	r19,2049
 8003e10:	9cf9bd04 	addi	r19,r19,-6412
 8003e14:	003f4e06 	br	8003b50 <__alt_data_end+0xf8003b50>
 8003e18:	d8812583 	ldbu	r2,1174(sp)
 8003e1c:	dc012a17 	ldw	r16,1192(sp)
 8003e20:	d8013115 	stw	zero,1220(sp)
 8003e24:	003a8c06 	br	8002858 <__alt_data_end+0xf8002858>
 8003e28:	d8812417 	ldw	r2,1168(sp)
 8003e2c:	d8812b15 	stw	r2,1196(sp)
 8003e30:	1029883a 	mov	r20,r2
 8003e34:	00bfff44 	movi	r2,-3
 8003e38:	a0800116 	blt	r20,r2,8003e40 <___vfprintf_internal_r+0x1c1c>
 8003e3c:	e5001d0e 	bge	fp,r20,8003eb4 <___vfprintf_internal_r+0x1c90>
 8003e40:	94bfff84 	addi	r18,r18,-2
 8003e44:	a53fffc4 	addi	r20,r20,-1
 8003e48:	dd012415 	stw	r20,1168(sp)
 8003e4c:	dc811fc5 	stb	r18,1151(sp)
 8003e50:	a0007216 	blt	r20,zero,800401c <___vfprintf_internal_r+0x1df8>
 8003e54:	00800ac4 	movi	r2,43
 8003e58:	d8812005 	stb	r2,1152(sp)
 8003e5c:	00800244 	movi	r2,9
 8003e60:	15003516 	blt	r2,r20,8003f38 <___vfprintf_internal_r+0x1d14>
 8003e64:	00800c04 	movi	r2,48
 8003e68:	a5000c04 	addi	r20,r20,48
 8003e6c:	d8812045 	stb	r2,1153(sp)
 8003e70:	dd012085 	stb	r20,1154(sp)
 8003e74:	d8c120c4 	addi	r3,sp,1155
 8003e78:	d8811fc4 	addi	r2,sp,1151
 8003e7c:	1885c83a 	sub	r2,r3,r2
 8003e80:	d8c13217 	ldw	r3,1224(sp)
 8003e84:	d8813515 	stw	r2,1236(sp)
 8003e88:	1885883a 	add	r2,r3,r2
 8003e8c:	d8812b15 	stw	r2,1196(sp)
 8003e90:	00800044 	movi	r2,1
 8003e94:	10c0580e 	bge	r2,r3,8003ff8 <___vfprintf_internal_r+0x1dd4>
 8003e98:	d8812b17 	ldw	r2,1196(sp)
 8003e9c:	10800044 	addi	r2,r2,1
 8003ea0:	d8812b15 	stw	r2,1196(sp)
 8003ea4:	d8812815 	stw	r2,1184(sp)
 8003ea8:	103ef50e 	bge	r2,zero,8003a80 <__alt_data_end+0xf8003a80>
 8003eac:	d8012815 	stw	zero,1184(sp)
 8003eb0:	003ef306 	br	8003a80 <__alt_data_end+0xf8003a80>
 8003eb4:	d8812b17 	ldw	r2,1196(sp)
 8003eb8:	d8c13217 	ldw	r3,1224(sp)
 8003ebc:	10c01416 	blt	r2,r3,8003f10 <___vfprintf_internal_r+0x1cec>
 8003ec0:	8400004c 	andi	r16,r16,1
 8003ec4:	80000326 	beq	r16,zero,8003ed4 <___vfprintf_internal_r+0x1cb0>
 8003ec8:	d8812b17 	ldw	r2,1196(sp)
 8003ecc:	10800044 	addi	r2,r2,1
 8003ed0:	d8812b15 	stw	r2,1196(sp)
 8003ed4:	d8812815 	stw	r2,1184(sp)
 8003ed8:	10001416 	blt	r2,zero,8003f2c <___vfprintf_internal_r+0x1d08>
 8003edc:	048019c4 	movi	r18,103
 8003ee0:	003ee706 	br	8003a80 <__alt_data_end+0xf8003a80>
 8003ee4:	d8012815 	stw	zero,1184(sp)
 8003ee8:	003b1a06 	br	8002b54 <__alt_data_end+0xf8002b54>
 8003eec:	e03e9c1e 	bne	fp,zero,8003960 <__alt_data_end+0xf8003960>
 8003ef0:	07000044 	movi	fp,1
 8003ef4:	003e9a06 	br	8003960 <__alt_data_end+0xf8003960>
 8003ef8:	07000184 	movi	fp,6
 8003efc:	003e9806 	br	8003960 <__alt_data_end+0xf8003960>
 8003f00:	00c00b44 	movi	r3,45
 8003f04:	a520003c 	xorhi	r20,r20,32768
 8003f08:	d8c12f05 	stb	r3,1212(sp)
 8003f0c:	003e9806 	br	8003970 <__alt_data_end+0xf8003970>
 8003f10:	05003f0e 	bge	zero,r20,8004010 <___vfprintf_internal_r+0x1dec>
 8003f14:	05000044 	movi	r20,1
 8003f18:	d8c13217 	ldw	r3,1224(sp)
 8003f1c:	a0e9883a 	add	r20,r20,r3
 8003f20:	dd012b15 	stw	r20,1196(sp)
 8003f24:	dd012815 	stw	r20,1184(sp)
 8003f28:	a03fec0e 	bge	r20,zero,8003edc <__alt_data_end+0xf8003edc>
 8003f2c:	d8012815 	stw	zero,1184(sp)
 8003f30:	048019c4 	movi	r18,103
 8003f34:	003ed206 	br	8003a80 <__alt_data_end+0xf8003a80>
 8003f38:	d8c11f84 	addi	r3,sp,1150
 8003f3c:	102f883a 	mov	r23,r2
 8003f40:	4839883a 	mov	fp,r9
 8003f44:	a009883a 	mov	r4,r20
 8003f48:	01400284 	movi	r5,10
 8003f4c:	182d883a 	mov	r22,r3
 8003f50:	800b0800 	call	800b080 <__modsi3>
 8003f54:	10800c04 	addi	r2,r2,48
 8003f58:	a009883a 	mov	r4,r20
 8003f5c:	b0800005 	stb	r2,0(r22)
 8003f60:	01400284 	movi	r5,10
 8003f64:	800b0300 	call	800b030 <__divsi3>
 8003f68:	1029883a 	mov	r20,r2
 8003f6c:	b0ffffc4 	addi	r3,r22,-1
 8003f70:	b8bff416 	blt	r23,r2,8003f44 <__alt_data_end+0xf8003f44>
 8003f74:	11400c04 	addi	r5,r2,48
 8003f78:	b17fffc5 	stb	r5,-1(r22)
 8003f7c:	d8811fc4 	addi	r2,sp,1151
 8003f80:	e013883a 	mov	r9,fp
 8003f84:	18803e2e 	bgeu	r3,r2,8004080 <___vfprintf_internal_r+0x1e5c>
 8003f88:	b007883a 	mov	r3,r22
 8003f8c:	d9012044 	addi	r4,sp,1153
 8003f90:	00000206 	br	8003f9c <___vfprintf_internal_r+0x1d78>
 8003f94:	19400003 	ldbu	r5,0(r3)
 8003f98:	18c00044 	addi	r3,r3,1
 8003f9c:	21400005 	stb	r5,0(r4)
 8003fa0:	21000044 	addi	r4,r4,1
 8003fa4:	10fffb1e 	bne	r2,r3,8003f94 <__alt_data_end+0xf8003f94>
 8003fa8:	d8c12004 	addi	r3,sp,1152
 8003fac:	1d87c83a 	sub	r3,r3,r22
 8003fb0:	d9012044 	addi	r4,sp,1153
 8003fb4:	20c7883a 	add	r3,r4,r3
 8003fb8:	003fb006 	br	8003e7c <__alt_data_end+0xf8003e7c>
 8003fbc:	e5c00044 	addi	r23,fp,1
 8003fc0:	003e7406 	br	8003994 <__alt_data_end+0xf8003994>
 8003fc4:	d8c12217 	ldw	r3,1160(sp)
 8003fc8:	003e9906 	br	8003a30 <__alt_data_end+0xf8003a30>
 8003fcc:	d9012d17 	ldw	r4,1204(sp)
 8003fd0:	ac800043 	ldbu	r18,1(r21)
 8003fd4:	b82b883a 	mov	r21,r23
 8003fd8:	20c00017 	ldw	r3,0(r4)
 8003fdc:	20800104 	addi	r2,r4,4
 8003fe0:	d8812d15 	stw	r2,1204(sp)
 8003fe4:	18002116 	blt	r3,zero,800406c <___vfprintf_internal_r+0x1e48>
 8003fe8:	94803fcc 	andi	r18,r18,255
 8003fec:	9480201c 	xori	r18,r18,128
 8003ff0:	94bfe004 	addi	r18,r18,-128
 8003ff4:	0038e706 	br	8002394 <__alt_data_end+0xf8002394>
 8003ff8:	80a0703a 	and	r16,r16,r2
 8003ffc:	803fa61e 	bne	r16,zero,8003e98 <__alt_data_end+0xf8003e98>
 8004000:	d8812b17 	ldw	r2,1196(sp)
 8004004:	d8812815 	stw	r2,1184(sp)
 8004008:	103e9d0e 	bge	r2,zero,8003a80 <__alt_data_end+0xf8003a80>
 800400c:	003fa706 	br	8003eac <__alt_data_end+0xf8003eac>
 8004010:	00800084 	movi	r2,2
 8004014:	1529c83a 	sub	r20,r2,r20
 8004018:	003fbf06 	br	8003f18 <__alt_data_end+0xf8003f18>
 800401c:	00800b44 	movi	r2,45
 8004020:	0529c83a 	sub	r20,zero,r20
 8004024:	d8812005 	stb	r2,1152(sp)
 8004028:	003f8c06 	br	8003e5c <__alt_data_end+0xf8003e5c>
 800402c:	008011c4 	movi	r2,71
 8004030:	90be6926 	beq	r18,r2,80039d8 <__alt_data_end+0xf80039d8>
 8004034:	003e6a06 	br	80039e0 <__alt_data_end+0xf80039e0>
 8004038:	00bfffc4 	movi	r2,-1
 800403c:	d8812c15 	stw	r2,1200(sp)
 8004040:	0039ad06 	br	80026f8 <__alt_data_end+0xf80026f8>
 8004044:	1007883a 	mov	r3,r2
 8004048:	003e7906 	br	8003a30 <__alt_data_end+0xf8003a30>
 800404c:	e000021e 	bne	fp,zero,8004058 <___vfprintf_internal_r+0x1e34>
 8004050:	8400004c 	andi	r16,r16,1
 8004054:	80000e26 	beq	r16,zero,8004090 <___vfprintf_internal_r+0x1e6c>
 8004058:	e7000084 	addi	fp,fp,2
 800405c:	df012b15 	stw	fp,1196(sp)
 8004060:	df012815 	stw	fp,1184(sp)
 8004064:	e03e860e 	bge	fp,zero,8003a80 <__alt_data_end+0xf8003a80>
 8004068:	003f9006 	br	8003eac <__alt_data_end+0xf8003eac>
 800406c:	94803fcc 	andi	r18,r18,255
 8004070:	9480201c 	xori	r18,r18,128
 8004074:	00ffffc4 	movi	r3,-1
 8004078:	94bfe004 	addi	r18,r18,-128
 800407c:	0038c506 	br	8002394 <__alt_data_end+0xf8002394>
 8004080:	d8c12044 	addi	r3,sp,1153
 8004084:	003f7d06 	br	8003e7c <__alt_data_end+0xf8003e7c>
 8004088:	dd012417 	ldw	r20,1168(sp)
 800408c:	003f6d06 	br	8003e44 <__alt_data_end+0xf8003e44>
 8004090:	00c00044 	movi	r3,1
 8004094:	d8c12815 	stw	r3,1184(sp)
 8004098:	d8c12b15 	stw	r3,1196(sp)
 800409c:	003e7806 	br	8003a80 <__alt_data_end+0xf8003a80>

080040a0 <__vfprintf_internal>:
 80040a0:	00820074 	movhi	r2,2049
 80040a4:	10810904 	addi	r2,r2,1060
 80040a8:	2007883a 	mov	r3,r4
 80040ac:	11000017 	ldw	r4,0(r2)
 80040b0:	2805883a 	mov	r2,r5
 80040b4:	300f883a 	mov	r7,r6
 80040b8:	180b883a 	mov	r5,r3
 80040bc:	100d883a 	mov	r6,r2
 80040c0:	80022241 	jmpi	8002224 <___vfprintf_internal_r>

080040c4 <__swsetup_r>:
 80040c4:	00820074 	movhi	r2,2049
 80040c8:	10810904 	addi	r2,r2,1060
 80040cc:	10800017 	ldw	r2,0(r2)
 80040d0:	defffd04 	addi	sp,sp,-12
 80040d4:	dc400115 	stw	r17,4(sp)
 80040d8:	dc000015 	stw	r16,0(sp)
 80040dc:	dfc00215 	stw	ra,8(sp)
 80040e0:	2023883a 	mov	r17,r4
 80040e4:	2821883a 	mov	r16,r5
 80040e8:	10000226 	beq	r2,zero,80040f4 <__swsetup_r+0x30>
 80040ec:	10c00e17 	ldw	r3,56(r2)
 80040f0:	18003d26 	beq	r3,zero,80041e8 <__swsetup_r+0x124>
 80040f4:	8080030b 	ldhu	r2,12(r16)
 80040f8:	10c0020c 	andi	r3,r2,8
 80040fc:	18ffffcc 	andi	r3,r3,65535
 8004100:	18e0001c 	xori	r3,r3,32768
 8004104:	18e00004 	addi	r3,r3,-32768
 8004108:	18001226 	beq	r3,zero,8004154 <__swsetup_r+0x90>
 800410c:	80c00417 	ldw	r3,16(r16)
 8004110:	18001f26 	beq	r3,zero,8004190 <__swsetup_r+0xcc>
 8004114:	1100004c 	andi	r4,r2,1
 8004118:	2000261e 	bne	r4,zero,80041b4 <__swsetup_r+0xf0>
 800411c:	1080008c 	andi	r2,r2,2
 8004120:	10bfffcc 	andi	r2,r2,65535
 8004124:	10a0001c 	xori	r2,r2,32768
 8004128:	10a00004 	addi	r2,r2,-32768
 800412c:	1000311e 	bne	r2,zero,80041f4 <__swsetup_r+0x130>
 8004130:	80800517 	ldw	r2,20(r16)
 8004134:	80800215 	stw	r2,8(r16)
 8004138:	18002326 	beq	r3,zero,80041c8 <__swsetup_r+0x104>
 800413c:	0005883a 	mov	r2,zero
 8004140:	dfc00217 	ldw	ra,8(sp)
 8004144:	dc400117 	ldw	r17,4(sp)
 8004148:	dc000017 	ldw	r16,0(sp)
 800414c:	dec00304 	addi	sp,sp,12
 8004150:	f800283a 	ret
 8004154:	10c0040c 	andi	r3,r2,16
 8004158:	18ffffcc 	andi	r3,r3,65535
 800415c:	18e0001c 	xori	r3,r3,32768
 8004160:	18e00004 	addi	r3,r3,-32768
 8004164:	18001e26 	beq	r3,zero,80041e0 <__swsetup_r+0x11c>
 8004168:	10c0010c 	andi	r3,r2,4
 800416c:	18ffffcc 	andi	r3,r3,65535
 8004170:	18e0001c 	xori	r3,r3,32768
 8004174:	18e00004 	addi	r3,r3,-32768
 8004178:	1800211e 	bne	r3,zero,8004200 <__swsetup_r+0x13c>
 800417c:	80c00417 	ldw	r3,16(r16)
 8004180:	11400214 	ori	r5,r2,8
 8004184:	8140030d 	sth	r5,12(r16)
 8004188:	2805883a 	mov	r2,r5
 800418c:	183fe11e 	bne	r3,zero,8004114 <__alt_data_end+0xf8004114>
 8004190:	1140a00c 	andi	r5,r2,640
 8004194:	01008004 	movi	r4,512
 8004198:	293fde26 	beq	r5,r4,8004114 <__alt_data_end+0xf8004114>
 800419c:	8809883a 	mov	r4,r17
 80041a0:	800b883a 	mov	r5,r16
 80041a4:	8006ac00 	call	8006ac0 <__smakebuf_r>
 80041a8:	8080030b 	ldhu	r2,12(r16)
 80041ac:	80c00417 	ldw	r3,16(r16)
 80041b0:	003fd806 	br	8004114 <__alt_data_end+0xf8004114>
 80041b4:	80800517 	ldw	r2,20(r16)
 80041b8:	80000215 	stw	zero,8(r16)
 80041bc:	0085c83a 	sub	r2,zero,r2
 80041c0:	80800615 	stw	r2,24(r16)
 80041c4:	183fdd1e 	bne	r3,zero,800413c <__alt_data_end+0xf800413c>
 80041c8:	8080030b 	ldhu	r2,12(r16)
 80041cc:	1080200c 	andi	r2,r2,128
 80041d0:	10bfffcc 	andi	r2,r2,65535
 80041d4:	10a0001c 	xori	r2,r2,32768
 80041d8:	10a00004 	addi	r2,r2,-32768
 80041dc:	103fd826 	beq	r2,zero,8004140 <__alt_data_end+0xf8004140>
 80041e0:	00bfffc4 	movi	r2,-1
 80041e4:	003fd606 	br	8004140 <__alt_data_end+0xf8004140>
 80041e8:	1009883a 	mov	r4,r2
 80041ec:	8005d4c0 	call	8005d4c <__sinit>
 80041f0:	003fc006 	br	80040f4 <__alt_data_end+0xf80040f4>
 80041f4:	0005883a 	mov	r2,zero
 80041f8:	80800215 	stw	r2,8(r16)
 80041fc:	003fce06 	br	8004138 <__alt_data_end+0xf8004138>
 8004200:	81400c17 	ldw	r5,48(r16)
 8004204:	28000626 	beq	r5,zero,8004220 <__swsetup_r+0x15c>
 8004208:	80c01004 	addi	r3,r16,64
 800420c:	28c00326 	beq	r5,r3,800421c <__swsetup_r+0x158>
 8004210:	8809883a 	mov	r4,r17
 8004214:	80060d00 	call	80060d0 <_free_r>
 8004218:	8080030b 	ldhu	r2,12(r16)
 800421c:	80000c15 	stw	zero,48(r16)
 8004220:	80c00417 	ldw	r3,16(r16)
 8004224:	013ff6c4 	movi	r4,-37
 8004228:	2084703a 	and	r2,r4,r2
 800422c:	80000115 	stw	zero,4(r16)
 8004230:	80c00015 	stw	r3,0(r16)
 8004234:	003fd206 	br	8004180 <__alt_data_end+0xf8004180>

08004238 <quorem>:
 8004238:	defff204 	addi	sp,sp,-56
 800423c:	dd000815 	stw	r20,32(sp)
 8004240:	20800417 	ldw	r2,16(r4)
 8004244:	2d000417 	ldw	r20,16(r5)
 8004248:	dcc00715 	stw	r19,28(sp)
 800424c:	dfc00d15 	stw	ra,52(sp)
 8004250:	df000c15 	stw	fp,48(sp)
 8004254:	ddc00b15 	stw	r23,44(sp)
 8004258:	dd800a15 	stw	r22,40(sp)
 800425c:	dd400915 	stw	r21,36(sp)
 8004260:	dc800615 	stw	r18,24(sp)
 8004264:	dc400515 	stw	r17,20(sp)
 8004268:	dc000415 	stw	r16,16(sp)
 800426c:	d9400015 	stw	r5,0(sp)
 8004270:	2027883a 	mov	r19,r4
 8004274:	15007d16 	blt	r2,r20,800446c <quorem+0x234>
 8004278:	a0800104 	addi	r2,r20,4
 800427c:	1085883a 	add	r2,r2,r2
 8004280:	1085883a 	add	r2,r2,r2
 8004284:	28ad883a 	add	r22,r5,r2
 8004288:	2085883a 	add	r2,r4,r2
 800428c:	10800017 	ldw	r2,0(r2)
 8004290:	b1400017 	ldw	r5,0(r22)
 8004294:	a53fffc4 	addi	r20,r20,-1
 8004298:	1009883a 	mov	r4,r2
 800429c:	29400044 	addi	r5,r5,1
 80042a0:	d8800115 	stw	r2,4(sp)
 80042a4:	800b0dc0 	call	800b0dc <__udivsi3>
 80042a8:	1025883a 	mov	r18,r2
 80042ac:	d8800017 	ldw	r2,0(sp)
 80042b0:	9f000504 	addi	fp,r19,20
 80042b4:	14000504 	addi	r16,r2,20
 80042b8:	90003626 	beq	r18,zero,8004394 <quorem+0x15c>
 80042bc:	802b883a 	mov	r21,r16
 80042c0:	e023883a 	mov	r17,fp
 80042c4:	0007883a 	mov	r3,zero
 80042c8:	002f883a 	mov	r23,zero
 80042cc:	a9800017 	ldw	r6,0(r21)
 80042d0:	900b883a 	mov	r5,r18
 80042d4:	d8c00315 	stw	r3,12(sp)
 80042d8:	313fffcc 	andi	r4,r6,65535
 80042dc:	d9800215 	stw	r6,8(sp)
 80042e0:	800b0ec0 	call	800b0ec <__mulsi3>
 80042e4:	d9800217 	ldw	r6,8(sp)
 80042e8:	d8c00317 	ldw	r3,12(sp)
 80042ec:	900b883a 	mov	r5,r18
 80042f0:	3008d43a 	srli	r4,r6,16
 80042f4:	1887883a 	add	r3,r3,r2
 80042f8:	d8c00315 	stw	r3,12(sp)
 80042fc:	800b0ec0 	call	800b0ec <__mulsi3>
 8004300:	89400017 	ldw	r5,0(r17)
 8004304:	d8c00317 	ldw	r3,12(sp)
 8004308:	ad400104 	addi	r21,r21,4
 800430c:	293fffcc 	andi	r4,r5,65535
 8004310:	1810d43a 	srli	r8,r3,16
 8004314:	25c9883a 	add	r4,r4,r23
 8004318:	18ffffcc 	andi	r3,r3,65535
 800431c:	20c9c83a 	sub	r4,r4,r3
 8004320:	280cd43a 	srli	r6,r5,16
 8004324:	4085883a 	add	r2,r8,r2
 8004328:	2007d43a 	srai	r3,r4,16
 800432c:	117fffcc 	andi	r5,r2,65535
 8004330:	314bc83a 	sub	r5,r6,r5
 8004334:	28cb883a 	add	r5,r5,r3
 8004338:	8940008d 	sth	r5,2(r17)
 800433c:	8900000d 	sth	r4,0(r17)
 8004340:	1006d43a 	srli	r3,r2,16
 8004344:	282fd43a 	srai	r23,r5,16
 8004348:	8c400104 	addi	r17,r17,4
 800434c:	b57fdf2e 	bgeu	r22,r21,80042cc <__alt_data_end+0xf80042cc>
 8004350:	d8c00117 	ldw	r3,4(sp)
 8004354:	18000f1e 	bne	r3,zero,8004394 <quorem+0x15c>
 8004358:	a0800144 	addi	r2,r20,5
 800435c:	1085883a 	add	r2,r2,r2
 8004360:	1085883a 	add	r2,r2,r2
 8004364:	9887883a 	add	r3,r19,r2
 8004368:	18bfff04 	addi	r2,r3,-4
 800436c:	e080082e 	bgeu	fp,r2,8004390 <quorem+0x158>
 8004370:	18ffff17 	ldw	r3,-4(r3)
 8004374:	18000326 	beq	r3,zero,8004384 <quorem+0x14c>
 8004378:	00000506 	br	8004390 <quorem+0x158>
 800437c:	10c00017 	ldw	r3,0(r2)
 8004380:	1800031e 	bne	r3,zero,8004390 <quorem+0x158>
 8004384:	10bfff04 	addi	r2,r2,-4
 8004388:	a53fffc4 	addi	r20,r20,-1
 800438c:	e0bffb36 	bltu	fp,r2,800437c <__alt_data_end+0xf800437c>
 8004390:	9d000415 	stw	r20,16(r19)
 8004394:	d9400017 	ldw	r5,0(sp)
 8004398:	9809883a 	mov	r4,r19
 800439c:	80081d80 	call	80081d8 <__mcmp>
 80043a0:	10002516 	blt	r2,zero,8004438 <quorem+0x200>
 80043a4:	94800044 	addi	r18,r18,1
 80043a8:	e007883a 	mov	r3,fp
 80043ac:	000d883a 	mov	r6,zero
 80043b0:	18800017 	ldw	r2,0(r3)
 80043b4:	82000017 	ldw	r8,0(r16)
 80043b8:	84000104 	addi	r16,r16,4
 80043bc:	11ffffcc 	andi	r7,r2,65535
 80043c0:	413fffcc 	andi	r4,r8,65535
 80043c4:	398d883a 	add	r6,r7,r6
 80043c8:	310fc83a 	sub	r7,r6,r4
 80043cc:	4010d43a 	srli	r8,r8,16
 80043d0:	100cd43a 	srli	r6,r2,16
 80043d4:	3809d43a 	srai	r4,r7,16
 80043d8:	19c0000d 	sth	r7,0(r3)
 80043dc:	320dc83a 	sub	r6,r6,r8
 80043e0:	310d883a 	add	r6,r6,r4
 80043e4:	1980008d 	sth	r6,2(r3)
 80043e8:	300dd43a 	srai	r6,r6,16
 80043ec:	18c00104 	addi	r3,r3,4
 80043f0:	b43fef2e 	bgeu	r22,r16,80043b0 <__alt_data_end+0xf80043b0>
 80043f4:	a0800144 	addi	r2,r20,5
 80043f8:	1085883a 	add	r2,r2,r2
 80043fc:	1085883a 	add	r2,r2,r2
 8004400:	9885883a 	add	r2,r19,r2
 8004404:	10c00017 	ldw	r3,0(r2)
 8004408:	18000b1e 	bne	r3,zero,8004438 <quorem+0x200>
 800440c:	10ffff04 	addi	r3,r2,-4
 8004410:	e0c0082e 	bgeu	fp,r3,8004434 <quorem+0x1fc>
 8004414:	10bfff17 	ldw	r2,-4(r2)
 8004418:	10000326 	beq	r2,zero,8004428 <quorem+0x1f0>
 800441c:	00000506 	br	8004434 <quorem+0x1fc>
 8004420:	18800017 	ldw	r2,0(r3)
 8004424:	1000031e 	bne	r2,zero,8004434 <quorem+0x1fc>
 8004428:	18ffff04 	addi	r3,r3,-4
 800442c:	a53fffc4 	addi	r20,r20,-1
 8004430:	e0fffb36 	bltu	fp,r3,8004420 <__alt_data_end+0xf8004420>
 8004434:	9d000415 	stw	r20,16(r19)
 8004438:	9005883a 	mov	r2,r18
 800443c:	dfc00d17 	ldw	ra,52(sp)
 8004440:	df000c17 	ldw	fp,48(sp)
 8004444:	ddc00b17 	ldw	r23,44(sp)
 8004448:	dd800a17 	ldw	r22,40(sp)
 800444c:	dd400917 	ldw	r21,36(sp)
 8004450:	dd000817 	ldw	r20,32(sp)
 8004454:	dcc00717 	ldw	r19,28(sp)
 8004458:	dc800617 	ldw	r18,24(sp)
 800445c:	dc400517 	ldw	r17,20(sp)
 8004460:	dc000417 	ldw	r16,16(sp)
 8004464:	dec00e04 	addi	sp,sp,56
 8004468:	f800283a 	ret
 800446c:	0005883a 	mov	r2,zero
 8004470:	003ff206 	br	800443c <__alt_data_end+0xf800443c>

08004474 <_dtoa_r>:
 8004474:	20801017 	ldw	r2,64(r4)
 8004478:	deffdf04 	addi	sp,sp,-132
 800447c:	dcc01a15 	stw	r19,104(sp)
 8004480:	dc801915 	stw	r18,100(sp)
 8004484:	dc401815 	stw	r17,96(sp)
 8004488:	dc001715 	stw	r16,92(sp)
 800448c:	dfc02015 	stw	ra,128(sp)
 8004490:	df001f15 	stw	fp,124(sp)
 8004494:	ddc01e15 	stw	r23,120(sp)
 8004498:	dd801d15 	stw	r22,116(sp)
 800449c:	dd401c15 	stw	r21,112(sp)
 80044a0:	dd001b15 	stw	r20,108(sp)
 80044a4:	d9400315 	stw	r5,12(sp)
 80044a8:	d9c00415 	stw	r7,16(sp)
 80044ac:	2021883a 	mov	r16,r4
 80044b0:	3025883a 	mov	r18,r6
 80044b4:	dcc02317 	ldw	r19,140(sp)
 80044b8:	3023883a 	mov	r17,r6
 80044bc:	10000826 	beq	r2,zero,80044e0 <_dtoa_r+0x6c>
 80044c0:	20c01117 	ldw	r3,68(r4)
 80044c4:	01800044 	movi	r6,1
 80044c8:	100b883a 	mov	r5,r2
 80044cc:	30cc983a 	sll	r6,r6,r3
 80044d0:	10c00115 	stw	r3,4(r2)
 80044d4:	11800215 	stw	r6,8(r2)
 80044d8:	80079340 	call	8007934 <_Bfree>
 80044dc:	80001015 	stw	zero,64(r16)
 80044e0:	90002f16 	blt	r18,zero,80045a0 <_dtoa_r+0x12c>
 80044e4:	98000015 	stw	zero,0(r19)
 80044e8:	90dffc2c 	andhi	r3,r18,32752
 80044ec:	009ffc34 	movhi	r2,32752
 80044f0:	18801c26 	beq	r3,r2,8004564 <_dtoa_r+0xf0>
 80044f4:	d9000317 	ldw	r4,12(sp)
 80044f8:	880b883a 	mov	r5,r17
 80044fc:	000d883a 	mov	r6,zero
 8004500:	000f883a 	mov	r7,zero
 8004504:	800ab880 	call	800ab88 <__nedf2>
 8004508:	10002c1e 	bne	r2,zero,80045bc <_dtoa_r+0x148>
 800450c:	d9002217 	ldw	r4,136(sp)
 8004510:	d9c02417 	ldw	r7,144(sp)
 8004514:	00800044 	movi	r2,1
 8004518:	20800015 	stw	r2,0(r4)
 800451c:	38019426 	beq	r7,zero,8004b70 <_dtoa_r+0x6fc>
 8004520:	00820074 	movhi	r2,2049
 8004524:	10b9ca44 	addi	r2,r2,-6359
 8004528:	38800015 	stw	r2,0(r7)
 800452c:	15ffffc4 	addi	r23,r2,-1
 8004530:	b805883a 	mov	r2,r23
 8004534:	dfc02017 	ldw	ra,128(sp)
 8004538:	df001f17 	ldw	fp,124(sp)
 800453c:	ddc01e17 	ldw	r23,120(sp)
 8004540:	dd801d17 	ldw	r22,116(sp)
 8004544:	dd401c17 	ldw	r21,112(sp)
 8004548:	dd001b17 	ldw	r20,108(sp)
 800454c:	dcc01a17 	ldw	r19,104(sp)
 8004550:	dc801917 	ldw	r18,100(sp)
 8004554:	dc401817 	ldw	r17,96(sp)
 8004558:	dc001717 	ldw	r16,92(sp)
 800455c:	dec02104 	addi	sp,sp,132
 8004560:	f800283a 	ret
 8004564:	d8c02217 	ldw	r3,136(sp)
 8004568:	d9000317 	ldw	r4,12(sp)
 800456c:	0089c3c4 	movi	r2,9999
 8004570:	18800015 	stw	r2,0(r3)
 8004574:	20016c26 	beq	r4,zero,8004b28 <_dtoa_r+0x6b4>
 8004578:	05c20074 	movhi	r23,2049
 800457c:	bdf9d604 	addi	r23,r23,-6312
 8004580:	d9c02417 	ldw	r7,144(sp)
 8004584:	383fea26 	beq	r7,zero,8004530 <__alt_data_end+0xf8004530>
 8004588:	b88000c7 	ldb	r2,3(r23)
 800458c:	10016d1e 	bne	r2,zero,8004b44 <_dtoa_r+0x6d0>
 8004590:	b88000c4 	addi	r2,r23,3
 8004594:	d8c02417 	ldw	r3,144(sp)
 8004598:	18800015 	stw	r2,0(r3)
 800459c:	003fe406 	br	8004530 <__alt_data_end+0xf8004530>
 80045a0:	04600034 	movhi	r17,32768
 80045a4:	8c7fffc4 	addi	r17,r17,-1
 80045a8:	9462703a 	and	r17,r18,r17
 80045ac:	00800044 	movi	r2,1
 80045b0:	98800015 	stw	r2,0(r19)
 80045b4:	8825883a 	mov	r18,r17
 80045b8:	003fcb06 	br	80044e8 <__alt_data_end+0xf80044e8>
 80045bc:	d9400317 	ldw	r5,12(sp)
 80045c0:	9028d53a 	srli	r20,r18,20
 80045c4:	d8800204 	addi	r2,sp,8
 80045c8:	d8800015 	stw	r2,0(sp)
 80045cc:	8009883a 	mov	r4,r16
 80045d0:	880d883a 	mov	r6,r17
 80045d4:	d9c00104 	addi	r7,sp,4
 80045d8:	80085800 	call	8008580 <__d2b>
 80045dc:	a501ffcc 	andi	r20,r20,2047
 80045e0:	1039883a 	mov	fp,r2
 80045e4:	a001591e 	bne	r20,zero,8004b4c <_dtoa_r+0x6d8>
 80045e8:	dd400217 	ldw	r21,8(sp)
 80045ec:	dd000117 	ldw	r20,4(sp)
 80045f0:	00befbc4 	movi	r2,-1041
 80045f4:	ad29883a 	add	r20,r21,r20
 80045f8:	a082d216 	blt	r20,r2,8005144 <_dtoa_r+0xcd0>
 80045fc:	d8c00317 	ldw	r3,12(sp)
 8004600:	013f0384 	movi	r4,-1010
 8004604:	2509c83a 	sub	r4,r4,r20
 8004608:	a0810484 	addi	r2,r20,1042
 800460c:	9124983a 	sll	r18,r18,r4
 8004610:	1884d83a 	srl	r2,r3,r2
 8004614:	9088b03a 	or	r4,r18,r2
 8004618:	800aea00 	call	800aea0 <__floatunsidf>
 800461c:	1009883a 	mov	r4,r2
 8004620:	017f8434 	movhi	r5,65040
 8004624:	00800044 	movi	r2,1
 8004628:	194b883a 	add	r5,r3,r5
 800462c:	a53fffc4 	addi	r20,r20,-1
 8004630:	d8800f15 	stw	r2,60(sp)
 8004634:	000d883a 	mov	r6,zero
 8004638:	01cffe34 	movhi	r7,16376
 800463c:	800a6340 	call	800a634 <__subdf3>
 8004640:	1009883a 	mov	r4,r2
 8004644:	180b883a 	mov	r5,r3
 8004648:	0198dbf4 	movhi	r6,25455
 800464c:	3190d844 	addi	r6,r6,17249
 8004650:	01cff4f4 	movhi	r7,16339
 8004654:	39e1e9c4 	addi	r7,r7,-30809
 8004658:	800a6940 	call	800a694 <__muldf3>
 800465c:	180b883a 	mov	r5,r3
 8004660:	01a2d874 	movhi	r6,35681
 8004664:	31b22cc4 	addi	r6,r6,-14157
 8004668:	01cff1f4 	movhi	r7,16327
 800466c:	39e28a04 	addi	r7,r7,-30168
 8004670:	1009883a 	mov	r4,r2
 8004674:	800a5e00 	call	800a5e0 <__adddf3>
 8004678:	a009883a 	mov	r4,r20
 800467c:	1027883a 	mov	r19,r2
 8004680:	1825883a 	mov	r18,r3
 8004684:	800ad080 	call	800ad08 <__floatsidf>
 8004688:	1009883a 	mov	r4,r2
 800468c:	180b883a 	mov	r5,r3
 8004690:	019427f4 	movhi	r6,20639
 8004694:	319e7ec4 	addi	r6,r6,31227
 8004698:	01cff4f4 	movhi	r7,16339
 800469c:	39d104c4 	addi	r7,r7,17427
 80046a0:	800a6940 	call	800a694 <__muldf3>
 80046a4:	9809883a 	mov	r4,r19
 80046a8:	900b883a 	mov	r5,r18
 80046ac:	100d883a 	mov	r6,r2
 80046b0:	180f883a 	mov	r7,r3
 80046b4:	800a5e00 	call	800a5e0 <__adddf3>
 80046b8:	1009883a 	mov	r4,r2
 80046bc:	180b883a 	mov	r5,r3
 80046c0:	1027883a 	mov	r19,r2
 80046c4:	1825883a 	mov	r18,r3
 80046c8:	800addc0 	call	800addc <__fixdfsi>
 80046cc:	9809883a 	mov	r4,r19
 80046d0:	900b883a 	mov	r5,r18
 80046d4:	000d883a 	mov	r6,zero
 80046d8:	000f883a 	mov	r7,zero
 80046dc:	d8800615 	stw	r2,24(sp)
 80046e0:	800acac0 	call	800acac <__ltdf2>
 80046e4:	10027e16 	blt	r2,zero,80050e0 <_dtoa_r+0xc6c>
 80046e8:	d8c00617 	ldw	r3,24(sp)
 80046ec:	00800584 	movi	r2,22
 80046f0:	10c26c36 	bltu	r2,r3,80050a4 <_dtoa_r+0xc30>
 80046f4:	180490fa 	slli	r2,r3,3
 80046f8:	00c20074 	movhi	r3,2049
 80046fc:	18f9fc04 	addi	r3,r3,-6160
 8004700:	d9800317 	ldw	r6,12(sp)
 8004704:	1885883a 	add	r2,r3,r2
 8004708:	11000017 	ldw	r4,0(r2)
 800470c:	11400117 	ldw	r5,4(r2)
 8004710:	880f883a 	mov	r7,r17
 8004714:	800abe40 	call	800abe4 <__gtdf2>
 8004718:	00828f0e 	bge	zero,r2,8005158 <_dtoa_r+0xce4>
 800471c:	d8800617 	ldw	r2,24(sp)
 8004720:	d8000d15 	stw	zero,52(sp)
 8004724:	10bfffc4 	addi	r2,r2,-1
 8004728:	d8800615 	stw	r2,24(sp)
 800472c:	ad29c83a 	sub	r20,r21,r20
 8004730:	a53fffc4 	addi	r20,r20,-1
 8004734:	a0026616 	blt	r20,zero,80050d0 <_dtoa_r+0xc5c>
 8004738:	dd000715 	stw	r20,28(sp)
 800473c:	d8000815 	stw	zero,32(sp)
 8004740:	d8800617 	ldw	r2,24(sp)
 8004744:	10025a16 	blt	r2,zero,80050b0 <_dtoa_r+0xc3c>
 8004748:	d8c00717 	ldw	r3,28(sp)
 800474c:	d8800b15 	stw	r2,44(sp)
 8004750:	d8000a15 	stw	zero,40(sp)
 8004754:	1887883a 	add	r3,r3,r2
 8004758:	d8c00715 	stw	r3,28(sp)
 800475c:	d9c00417 	ldw	r7,16(sp)
 8004760:	00800244 	movi	r2,9
 8004764:	11c10536 	bltu	r2,r7,8004b7c <_dtoa_r+0x708>
 8004768:	00800144 	movi	r2,5
 800476c:	11c4c60e 	bge	r2,r7,8005a88 <_dtoa_r+0x1614>
 8004770:	39ffff04 	addi	r7,r7,-4
 8004774:	d9c00415 	stw	r7,16(sp)
 8004778:	0027883a 	mov	r19,zero
 800477c:	d9c00417 	ldw	r7,16(sp)
 8004780:	008000c4 	movi	r2,3
 8004784:	3883a226 	beq	r7,r2,8005610 <_dtoa_r+0x119c>
 8004788:	11c2bc16 	blt	r2,r7,800527c <_dtoa_r+0xe08>
 800478c:	00800084 	movi	r2,2
 8004790:	3880fb1e 	bne	r7,r2,8004b80 <_dtoa_r+0x70c>
 8004794:	d8000c15 	stw	zero,48(sp)
 8004798:	d9002117 	ldw	r4,132(sp)
 800479c:	0103ae0e 	bge	zero,r4,8005658 <_dtoa_r+0x11e4>
 80047a0:	2025883a 	mov	r18,r4
 80047a4:	d9000e15 	stw	r4,56(sp)
 80047a8:	d9000915 	stw	r4,36(sp)
 80047ac:	80001115 	stw	zero,68(r16)
 80047b0:	008005c4 	movi	r2,23
 80047b4:	1484b22e 	bgeu	r2,r18,8005a80 <_dtoa_r+0x160c>
 80047b8:	00c00044 	movi	r3,1
 80047bc:	00800104 	movi	r2,4
 80047c0:	1085883a 	add	r2,r2,r2
 80047c4:	11000504 	addi	r4,r2,20
 80047c8:	180b883a 	mov	r5,r3
 80047cc:	18c00044 	addi	r3,r3,1
 80047d0:	913ffb2e 	bgeu	r18,r4,80047c0 <__alt_data_end+0xf80047c0>
 80047d4:	81401115 	stw	r5,68(r16)
 80047d8:	8009883a 	mov	r4,r16
 80047dc:	800788c0 	call	800788c <_Balloc>
 80047e0:	102f883a 	mov	r23,r2
 80047e4:	80801015 	stw	r2,64(r16)
 80047e8:	00800384 	movi	r2,14
 80047ec:	1480f036 	bltu	r2,r18,8004bb0 <_dtoa_r+0x73c>
 80047f0:	9800ef26 	beq	r19,zero,8004bb0 <_dtoa_r+0x73c>
 80047f4:	d8800617 	ldw	r2,24(sp)
 80047f8:	00839c0e 	bge	zero,r2,800566c <_dtoa_r+0x11f8>
 80047fc:	d8c00617 	ldw	r3,24(sp)
 8004800:	108003cc 	andi	r2,r2,15
 8004804:	100490fa 	slli	r2,r2,3
 8004808:	182bd13a 	srai	r21,r3,4
 800480c:	00c20074 	movhi	r3,2049
 8004810:	18f9fc04 	addi	r3,r3,-6160
 8004814:	1885883a 	add	r2,r3,r2
 8004818:	a8c0040c 	andi	r3,r21,16
 800481c:	12800017 	ldw	r10,0(r2)
 8004820:	15800117 	ldw	r22,4(r2)
 8004824:	18038726 	beq	r3,zero,8005644 <_dtoa_r+0x11d0>
 8004828:	00820074 	movhi	r2,2049
 800482c:	10b9f204 	addi	r2,r2,-6200
 8004830:	11800817 	ldw	r6,32(r2)
 8004834:	11c00917 	ldw	r7,36(r2)
 8004838:	d9000317 	ldw	r4,12(sp)
 800483c:	880b883a 	mov	r5,r17
 8004840:	da801515 	stw	r10,84(sp)
 8004844:	800a9780 	call	800a978 <__divdf3>
 8004848:	da801517 	ldw	r10,84(sp)
 800484c:	d8801015 	stw	r2,64(sp)
 8004850:	1829883a 	mov	r20,r3
 8004854:	ad4003cc 	andi	r21,r21,15
 8004858:	048000c4 	movi	r18,3
 800485c:	a8001126 	beq	r21,zero,80048a4 <_dtoa_r+0x430>
 8004860:	04c20074 	movhi	r19,2049
 8004864:	9cf9f204 	addi	r19,r19,-6200
 8004868:	5005883a 	mov	r2,r10
 800486c:	b007883a 	mov	r3,r22
 8004870:	a980004c 	andi	r6,r21,1
 8004874:	1009883a 	mov	r4,r2
 8004878:	a82bd07a 	srai	r21,r21,1
 800487c:	180b883a 	mov	r5,r3
 8004880:	30000426 	beq	r6,zero,8004894 <_dtoa_r+0x420>
 8004884:	99800017 	ldw	r6,0(r19)
 8004888:	99c00117 	ldw	r7,4(r19)
 800488c:	94800044 	addi	r18,r18,1
 8004890:	800a6940 	call	800a694 <__muldf3>
 8004894:	9cc00204 	addi	r19,r19,8
 8004898:	a83ff51e 	bne	r21,zero,8004870 <__alt_data_end+0xf8004870>
 800489c:	1015883a 	mov	r10,r2
 80048a0:	182d883a 	mov	r22,r3
 80048a4:	d9001017 	ldw	r4,64(sp)
 80048a8:	a00b883a 	mov	r5,r20
 80048ac:	500d883a 	mov	r6,r10
 80048b0:	b00f883a 	mov	r7,r22
 80048b4:	800a9780 	call	800a978 <__divdf3>
 80048b8:	1027883a 	mov	r19,r2
 80048bc:	1829883a 	mov	r20,r3
 80048c0:	d8c00d17 	ldw	r3,52(sp)
 80048c4:	18000626 	beq	r3,zero,80048e0 <_dtoa_r+0x46c>
 80048c8:	9809883a 	mov	r4,r19
 80048cc:	a00b883a 	mov	r5,r20
 80048d0:	000d883a 	mov	r6,zero
 80048d4:	01cffc34 	movhi	r7,16368
 80048d8:	800acac0 	call	800acac <__ltdf2>
 80048dc:	10040e16 	blt	r2,zero,8005918 <_dtoa_r+0x14a4>
 80048e0:	9009883a 	mov	r4,r18
 80048e4:	800ad080 	call	800ad08 <__floatsidf>
 80048e8:	1009883a 	mov	r4,r2
 80048ec:	180b883a 	mov	r5,r3
 80048f0:	980d883a 	mov	r6,r19
 80048f4:	a00f883a 	mov	r7,r20
 80048f8:	800a6940 	call	800a694 <__muldf3>
 80048fc:	1009883a 	mov	r4,r2
 8004900:	180b883a 	mov	r5,r3
 8004904:	000d883a 	mov	r6,zero
 8004908:	01d00734 	movhi	r7,16412
 800490c:	800a5e00 	call	800a5e0 <__adddf3>
 8004910:	057f3034 	movhi	r21,64704
 8004914:	1d6b883a 	add	r21,r3,r21
 8004918:	d8c00917 	ldw	r3,36(sp)
 800491c:	1025883a 	mov	r18,r2
 8004920:	18031f26 	beq	r3,zero,80055a0 <_dtoa_r+0x112c>
 8004924:	d8800617 	ldw	r2,24(sp)
 8004928:	dac00917 	ldw	r11,36(sp)
 800492c:	d8801315 	stw	r2,76(sp)
 8004930:	d8c00c17 	ldw	r3,48(sp)
 8004934:	18039026 	beq	r3,zero,8005778 <_dtoa_r+0x1304>
 8004938:	58bfffc4 	addi	r2,r11,-1
 800493c:	100490fa 	slli	r2,r2,3
 8004940:	00c20074 	movhi	r3,2049
 8004944:	18f9fc04 	addi	r3,r3,-6160
 8004948:	0009883a 	mov	r4,zero
 800494c:	1885883a 	add	r2,r3,r2
 8004950:	11800017 	ldw	r6,0(r2)
 8004954:	11c00117 	ldw	r7,4(r2)
 8004958:	014ff834 	movhi	r5,16352
 800495c:	dac01615 	stw	r11,88(sp)
 8004960:	800a9780 	call	800a978 <__divdf3>
 8004964:	900d883a 	mov	r6,r18
 8004968:	a80f883a 	mov	r7,r21
 800496c:	1009883a 	mov	r4,r2
 8004970:	180b883a 	mov	r5,r3
 8004974:	800a6340 	call	800a634 <__subdf3>
 8004978:	a00b883a 	mov	r5,r20
 800497c:	9809883a 	mov	r4,r19
 8004980:	182b883a 	mov	r21,r3
 8004984:	d8801015 	stw	r2,64(sp)
 8004988:	800addc0 	call	800addc <__fixdfsi>
 800498c:	1009883a 	mov	r4,r2
 8004990:	d8801515 	stw	r2,84(sp)
 8004994:	800ad080 	call	800ad08 <__floatsidf>
 8004998:	9809883a 	mov	r4,r19
 800499c:	a00b883a 	mov	r5,r20
 80049a0:	100d883a 	mov	r6,r2
 80049a4:	180f883a 	mov	r7,r3
 80049a8:	800a6340 	call	800a634 <__subdf3>
 80049ac:	da401517 	ldw	r9,84(sp)
 80049b0:	d9001017 	ldw	r4,64(sp)
 80049b4:	a80b883a 	mov	r5,r21
 80049b8:	4d000c04 	addi	r20,r9,48
 80049bc:	bd000005 	stb	r20,0(r23)
 80049c0:	100d883a 	mov	r6,r2
 80049c4:	180f883a 	mov	r7,r3
 80049c8:	bd800044 	addi	r22,r23,1
 80049cc:	1025883a 	mov	r18,r2
 80049d0:	1827883a 	mov	r19,r3
 80049d4:	800abe40 	call	800abe4 <__gtdf2>
 80049d8:	00842216 	blt	zero,r2,8005a64 <_dtoa_r+0x15f0>
 80049dc:	0009883a 	mov	r4,zero
 80049e0:	014ffc34 	movhi	r5,16368
 80049e4:	900d883a 	mov	r6,r18
 80049e8:	980f883a 	mov	r7,r19
 80049ec:	800a6340 	call	800a634 <__subdf3>
 80049f0:	d9001017 	ldw	r4,64(sp)
 80049f4:	a80b883a 	mov	r5,r21
 80049f8:	100d883a 	mov	r6,r2
 80049fc:	180f883a 	mov	r7,r3
 8004a00:	800abe40 	call	800abe4 <__gtdf2>
 8004a04:	dac01617 	ldw	r11,88(sp)
 8004a08:	00841316 	blt	zero,r2,8005a58 <_dtoa_r+0x15e4>
 8004a0c:	00800044 	movi	r2,1
 8004a10:	12c0670e 	bge	r2,r11,8004bb0 <_dtoa_r+0x73c>
 8004a14:	bad7883a 	add	r11,r23,r11
 8004a18:	df001115 	stw	fp,68(sp)
 8004a1c:	dc401215 	stw	r17,72(sp)
 8004a20:	5839883a 	mov	fp,r11
 8004a24:	dc401017 	ldw	r17,64(sp)
 8004a28:	00000806 	br	8004a4c <_dtoa_r+0x5d8>
 8004a2c:	800a6340 	call	800a634 <__subdf3>
 8004a30:	1009883a 	mov	r4,r2
 8004a34:	180b883a 	mov	r5,r3
 8004a38:	880d883a 	mov	r6,r17
 8004a3c:	a80f883a 	mov	r7,r21
 8004a40:	800acac0 	call	800acac <__ltdf2>
 8004a44:	1003ee16 	blt	r2,zero,8005a00 <_dtoa_r+0x158c>
 8004a48:	b703f126 	beq	r22,fp,8005a10 <_dtoa_r+0x159c>
 8004a4c:	8809883a 	mov	r4,r17
 8004a50:	a80b883a 	mov	r5,r21
 8004a54:	000d883a 	mov	r6,zero
 8004a58:	01d00934 	movhi	r7,16420
 8004a5c:	800a6940 	call	800a694 <__muldf3>
 8004a60:	000d883a 	mov	r6,zero
 8004a64:	01d00934 	movhi	r7,16420
 8004a68:	9009883a 	mov	r4,r18
 8004a6c:	980b883a 	mov	r5,r19
 8004a70:	1023883a 	mov	r17,r2
 8004a74:	182b883a 	mov	r21,r3
 8004a78:	800a6940 	call	800a694 <__muldf3>
 8004a7c:	180b883a 	mov	r5,r3
 8004a80:	1009883a 	mov	r4,r2
 8004a84:	1825883a 	mov	r18,r3
 8004a88:	1027883a 	mov	r19,r2
 8004a8c:	800addc0 	call	800addc <__fixdfsi>
 8004a90:	1009883a 	mov	r4,r2
 8004a94:	1029883a 	mov	r20,r2
 8004a98:	800ad080 	call	800ad08 <__floatsidf>
 8004a9c:	9809883a 	mov	r4,r19
 8004aa0:	900b883a 	mov	r5,r18
 8004aa4:	100d883a 	mov	r6,r2
 8004aa8:	180f883a 	mov	r7,r3
 8004aac:	800a6340 	call	800a634 <__subdf3>
 8004ab0:	a5000c04 	addi	r20,r20,48
 8004ab4:	b5000005 	stb	r20,0(r22)
